; ModuleID = 'temp-unreadable.ll'
target datalayout = "e-p:64:64:64-i1:8:8-i8:8:8-i16:16:16-i32:32:32-i64:64:64-f32:32:32-f64:64:64-v64:64:64-v128:128:128-a0:0:64-s0:64:64-f80:128:128-n8:16:32:64-S128"
target triple = "x86_64-unknown-linux-gnu"

%struct._IO_FILE = type { i32, i8*, i8*, i8*, i8*, i8*, i8*, i8*, i8*, i8*, i8*, i8*, %struct._IO_marker*, %struct._IO_FILE*, i32, i32, i64, i16, i8, [1 x i8], i8*, i64, i8*, i8*, i8*, i8*, i64, i32, [20 x i8] }
%struct._IO_marker = type { %struct._IO_marker*, %struct._IO_FILE*, i32 }
%struct.timeval = type { i64, i64 }
%struct.timezone = type { i32, i32 }

@.str = private unnamed_addr constant [15 x i8] c"SDC DETECTED!\0A\00", align 1
@blosum62 = global [24 x [24 x i32]] [[24 x i32] [i32 4, i32 -1, i32 -2, i32 -2, i32 0, i32 -1, i32 -1, i32 0, i32 -2, i32 -1, i32 -1, i32 -1, i32 -1, i32 -2, i32 -1, i32 1, i32 0, i32 -3, i32 -2, i32 0, i32 -2, i32 -1, i32 0, i32 -4], [24 x i32] [i32 -1, i32 5, i32 0, i32 -2, i32 -3, i32 1, i32 0, i32 -2, i32 0, i32 -3, i32 -2, i32 2, i32 -1, i32 -3, i32 -2, i32 -1, i32 -1, i32 -3, i32 -2, i32 -3, i32 -1, i32 0, i32 -1, i32 -4], [24 x i32] [i32 -2, i32 0, i32 6, i32 1, i32 -3, i32 0, i32 0, i32 0, i32 1, i32 -3, i32 -3, i32 0, i32 -2, i32 -3, i32 -2, i32 1, i32 0, i32 -4, i32 -2, i32 -3, i32 3, i32 0, i32 -1, i32 -4], [24 x i32] [i32 -2, i32 -2, i32 1, i32 6, i32 -3, i32 0, i32 2, i32 -1, i32 -1, i32 -3, i32 -4, i32 -1, i32 -3, i32 -3, i32 -1, i32 0, i32 -1, i32 -4, i32 -3, i32 -3, i32 4, i32 1, i32 -1, i32 -4], [24 x i32] [i32 0, i32 -3, i32 -3, i32 -3, i32 9, i32 -3, i32 -4, i32 -3, i32 -3, i32 -1, i32 -1, i32 -3, i32 -1, i32 -2, i32 -3, i32 -1, i32 -1, i32 -2, i32 -2, i32 -1, i32 -3, i32 -3, i32 -2, i32 -4], [24 x i32] [i32 -1, i32 1, i32 0, i32 0, i32 -3, i32 5, i32 2, i32 -2, i32 0, i32 -3, i32 -2, i32 1, i32 0, i32 -3, i32 -1, i32 0, i32 -1, i32 -2, i32 -1, i32 -2, i32 0, i32 3, i32 -1, i32 -4], [24 x i32] [i32 -1, i32 0, i32 0, i32 2, i32 -4, i32 2, i32 5, i32 -2, i32 0, i32 -3, i32 -3, i32 1, i32 -2, i32 -3, i32 -1, i32 0, i32 -1, i32 -3, i32 -2, i32 -2, i32 1, i32 4, i32 -1, i32 -4], [24 x i32] [i32 0, i32 -2, i32 0, i32 -1, i32 -3, i32 -2, i32 -2, i32 6, i32 -2, i32 -4, i32 -4, i32 -2, i32 -3, i32 -3, i32 -2, i32 0, i32 -2, i32 -2, i32 -3, i32 -3, i32 -1, i32 -2, i32 -1, i32 -4], [24 x i32] [i32 -2, i32 0, i32 1, i32 -1, i32 -3, i32 0, i32 0, i32 -2, i32 8, i32 -3, i32 -3, i32 -1, i32 -2, i32 -1, i32 -2, i32 -1, i32 -2, i32 -2, i32 2, i32 -3, i32 0, i32 0, i32 -1, i32 -4], [24 x i32] [i32 -1, i32 -3, i32 -3, i32 -3, i32 -1, i32 -3, i32 -3, i32 -4, i32 -3, i32 4, i32 2, i32 -3, i32 1, i32 0, i32 -3, i32 -2, i32 -1, i32 -3, i32 -1, i32 3, i32 -3, i32 -3, i32 -1, i32 -4], [24 x i32] [i32 -1, i32 -2, i32 -3, i32 -4, i32 -1, i32 -2, i32 -3, i32 -4, i32 -3, i32 2, i32 4, i32 -2, i32 2, i32 0, i32 -3, i32 -2, i32 -1, i32 -2, i32 -1, i32 1, i32 -4, i32 -3, i32 -1, i32 -4], [24 x i32] [i32 -1, i32 2, i32 0, i32 -1, i32 -3, i32 1, i32 1, i32 -2, i32 -1, i32 -3, i32 -2, i32 5, i32 -1, i32 -3, i32 -1, i32 0, i32 -1, i32 -3, i32 -2, i32 -2, i32 0, i32 1, i32 -1, i32 -4], [24 x i32] [i32 -1, i32 -1, i32 -2, i32 -3, i32 -1, i32 0, i32 -2, i32 -3, i32 -2, i32 1, i32 2, i32 -1, i32 5, i32 0, i32 -2, i32 -1, i32 -1, i32 -1, i32 -1, i32 1, i32 -3, i32 -1, i32 -1, i32 -4], [24 x i32] [i32 -2, i32 -3, i32 -3, i32 -3, i32 -2, i32 -3, i32 -3, i32 -3, i32 -1, i32 0, i32 0, i32 -3, i32 0, i32 6, i32 -4, i32 -2, i32 -2, i32 1, i32 3, i32 -1, i32 -3, i32 -3, i32 -1, i32 -4], [24 x i32] [i32 -1, i32 -2, i32 -2, i32 -1, i32 -3, i32 -1, i32 -1, i32 -2, i32 -2, i32 -3, i32 -3, i32 -1, i32 -2, i32 -4, i32 7, i32 -1, i32 -1, i32 -4, i32 -3, i32 -2, i32 -2, i32 -1, i32 -2, i32 -4], [24 x i32] [i32 1, i32 -1, i32 1, i32 0, i32 -1, i32 0, i32 0, i32 0, i32 -1, i32 -2, i32 -2, i32 0, i32 -1, i32 -2, i32 -1, i32 4, i32 1, i32 -3, i32 -2, i32 -2, i32 0, i32 0, i32 0, i32 -4], [24 x i32] [i32 0, i32 -1, i32 0, i32 -1, i32 -1, i32 -1, i32 -1, i32 -2, i32 -2, i32 -1, i32 -1, i32 -1, i32 -1, i32 -2, i32 -1, i32 1, i32 5, i32 -2, i32 -2, i32 0, i32 -1, i32 -1, i32 0, i32 -4], [24 x i32] [i32 -3, i32 -3, i32 -4, i32 -4, i32 -2, i32 -2, i32 -3, i32 -2, i32 -2, i32 -3, i32 -2, i32 -3, i32 -1, i32 1, i32 -4, i32 -3, i32 -2, i32 11, i32 2, i32 -3, i32 -4, i32 -3, i32 -2, i32 -4], [24 x i32] [i32 -2, i32 -2, i32 -2, i32 -3, i32 -2, i32 -1, i32 -2, i32 -3, i32 2, i32 -1, i32 -1, i32 -2, i32 -1, i32 3, i32 -3, i32 -2, i32 -2, i32 2, i32 7, i32 -1, i32 -3, i32 -2, i32 -1, i32 -4], [24 x i32] [i32 0, i32 -3, i32 -3, i32 -3, i32 -1, i32 -2, i32 -2, i32 -3, i32 -3, i32 3, i32 1, i32 -2, i32 1, i32 -1, i32 -2, i32 -2, i32 0, i32 -3, i32 -1, i32 4, i32 -3, i32 -2, i32 -1, i32 -4], [24 x i32] [i32 -2, i32 -1, i32 3, i32 4, i32 -3, i32 0, i32 1, i32 -1, i32 0, i32 -3, i32 -4, i32 0, i32 -3, i32 -3, i32 -2, i32 0, i32 -1, i32 -4, i32 -3, i32 -3, i32 4, i32 1, i32 -1, i32 -4], [24 x i32] [i32 -1, i32 0, i32 0, i32 1, i32 -3, i32 3, i32 4, i32 -2, i32 0, i32 -3, i32 -3, i32 1, i32 -1, i32 -3, i32 -1, i32 0, i32 -1, i32 -3, i32 -2, i32 -2, i32 1, i32 4, i32 -1, i32 -4], [24 x i32] [i32 0, i32 -1, i32 -1, i32 -1, i32 -2, i32 -1, i32 -1, i32 -1, i32 -1, i32 -1, i32 -1, i32 -1, i32 -1, i32 -1, i32 -2, i32 0, i32 0, i32 -2, i32 -1, i32 -1, i32 -1, i32 -1, i32 -1, i32 -4], [24 x i32] [i32 -4, i32 -4, i32 -4, i32 -4, i32 -4, i32 -4, i32 -4, i32 -4, i32 -4, i32 -4, i32 -4, i32 -4, i32 -4, i32 -4, i32 -4, i32 -4, i32 -4, i32 -4, i32 -4, i32 -4, i32 -4, i32 -4, i32 -4, i32 1]], align 16
@stderr = external global %struct._IO_FILE*
@.str1 = private unnamed_addr constant [55 x i8] c"Usage: %s <max_rows/max_cols> <penalty> <num_threads>\0A\00", align 1
@.str12 = private unnamed_addr constant [40 x i8] c"\09<dimension>      - x and y dimensions\0A\00", align 1
@.str2 = private unnamed_addr constant [47 x i8] c"\09<penalty>        - penalty(positive integer)\0A\00", align 1
@.str3 = private unnamed_addr constant [36 x i8] c"\09<num_threads>    - no. of threads\0A\00", align 1
@.str4 = private unnamed_addr constant [32 x i8] c"Processing bottom-right matrix\0A\00", align 1
@.str5 = private unnamed_addr constant [31 x i8] c"error: can not allocate memory\00", align 1
@.str6 = private unnamed_addr constant [24 x i8] c"Start Needleman-Wunsch\0A\00", align 1
@.str7 = private unnamed_addr constant [20 x i8] c"Num of threads: %d\0A\00", align 1
@.str8 = private unnamed_addr constant [28 x i8] c"Processing top-left matrix\0A\00", align 1
@.str9 = private unnamed_addr constant [26 x i8] c"Total time: %.3f seconds\0A\00", align 1
@.str10 = private unnamed_addr constant [11 x i8] c"result.txt\00", align 1
@.str11 = private unnamed_addr constant [2 x i8] c"w\00", align 1
@.str123 = private unnamed_addr constant [28 x i8] c"print traceback value GPU:\0A\00", align 1
@.str13 = private unnamed_addr constant [4 x i8] c"%d \00", align 1

; Function Attrs: nounwind uwtable
define void @check_flag() #0 {
  %1 = call i32 (i8*, ...)* @printf(i8* getelementptr inbounds ([15 x i8]* @.str, i32 0, i32 0))
  call void @exit(i32 99) #6
  unreachable
                                                  ; No predecessors!
  ret void
}

declare i32 @printf(i8*, ...) #1

; Function Attrs: noreturn nounwind
declare void @exit(i32) #2

; Function Attrs: nounwind uwtable
define i64 @_Z8get_timev() #0 {
  %tv = alloca %struct.timeval, align 8, !llfi_index !1
  %1 = call i32 @gettimeofday(%struct.timeval* %tv, %struct.timezone* null) #7, !llfi_index !2
  %2 = getelementptr inbounds %struct.timeval* %tv, i32 0, i32 0, !llfi_index !3
  %3 = load i64* %2, align 8, !llfi_index !4
  %4 = mul nsw i64 %3, 1000000, !llfi_index !5
  %5 = getelementptr inbounds %struct.timeval* %tv, i32 0, i32 1, !llfi_index !6
  %6 = load i64* %5, align 8, !llfi_index !7
  %7 = add nsw i64 %4, %6, !llfi_index !8
  ret i64 %7, !llfi_index !9
}

; Function Attrs: nounwind
declare i32 @gettimeofday(%struct.timeval*, %struct.timezone*) #3

; Function Attrs: nounwind uwtable
define i32 @_Z7maximumiii(i32 %a, i32 %b, i32 %c) #0 {
  %1 = alloca i32, align 4, !llfi_index !10
  %2 = alloca i32, align 4, !llfi_index !11
  %3 = alloca i32, align 4, !llfi_index !12
  %4 = alloca i32, align 4, !llfi_index !13
  %k = alloca i32, align 4, !llfi_index !14
  store i32 %a, i32* %2, align 4, !llfi_index !15
  store i32 %b, i32* %3, align 4, !llfi_index !16
  store i32 %c, i32* %4, align 4, !llfi_index !17
  %5 = load i32* %2, align 4, !llfi_index !18
  %6 = load i32* %3, align 4, !llfi_index !19
  %7 = icmp sle i32 %5, %6, !llfi_index !20
  br i1 %7, label %8, label %10, !llfi_index !21

; <label>:8                                       ; preds = %0
  %9 = load i32* %3, align 4, !llfi_index !22
  store i32 %9, i32* %k, align 4, !llfi_index !23
  br label %14, !llfi_index !24

; <label>:10                                      ; preds = %0
  %11 = load i32* %2, align 4, !llfi_index !25
  %12 = load i32* %2, align 4, !llfi_index !25
  %check_cmp = icmp eq i32 %11, %12
  br i1 %check_cmp, label %13, label %checkBb

checkBb:                                          ; preds = %10
  call void @check_flag()
  br label %13

; <label>:13                                      ; preds = %checkBb, %10
  store i32 %11, i32* %k, align 4, !llfi_index !26
  br label %14, !llfi_index !27

; <label>:14                                      ; preds = %13, %8
  %15 = load i32* %k, align 4, !llfi_index !28
  %16 = load i32* %k, align 4, !llfi_index !28
  %check_cmp1 = icmp eq i32 %15, %16
  br i1 %check_cmp1, label %17, label %checkBb2

checkBb2:                                         ; preds = %14
  call void @check_flag()
  br label %17

; <label>:17                                      ; preds = %checkBb2, %14
  %18 = load i32* %4, align 4, !llfi_index !29
  %19 = icmp sle i32 %15, %18, !llfi_index !30
  br i1 %19, label %20, label %22, !llfi_index !31

; <label>:20                                      ; preds = %17
  %21 = load i32* %4, align 4, !llfi_index !32
  store i32 %21, i32* %1, !llfi_index !33
  br label %24, !llfi_index !34

; <label>:22                                      ; preds = %17
  %23 = load i32* %k, align 4, !llfi_index !35
  store i32 %23, i32* %1, !llfi_index !36
  br label %24, !llfi_index !37

; <label>:24                                      ; preds = %22, %20
  %25 = load i32* %1, !llfi_index !38
  ret i32 %25, !llfi_index !39
}

; Function Attrs: nounwind uwtable
define double @_Z7gettimev() #0 {
  %t = alloca %struct.timeval, align 8, !llfi_index !40
  %1 = call i32 @gettimeofday(%struct.timeval* %t, %struct.timezone* null) #7, !llfi_index !41
  %2 = getelementptr inbounds %struct.timeval* %t, i32 0, i32 0, !llfi_index !42
  %3 = load i64* %2, align 8, !llfi_index !43
  %4 = sitofp i64 %3 to double, !llfi_index !44
  %5 = getelementptr inbounds %struct.timeval* %t, i32 0, i32 1, !llfi_index !45
  %6 = load i64* %5, align 8, !llfi_index !46
  %7 = sitofp i64 %6 to double, !llfi_index !47
  %8 = fmul double %7, 1.000000e-06, !llfi_index !48
  %9 = fadd double %4, %8, !llfi_index !49
  ret double %9, !llfi_index !50
}

; Function Attrs: uwtable
define i32 @main(i32 %argc, i8** %argv) #4 {
  %1 = alloca i32, align 4, !llfi_index !51
  %2 = alloca i32, align 4, !llfi_index !52
  %3 = alloca i8**, align 8, !llfi_index !53
  store i32 0, i32* %1, !llfi_index !54
  store i32 %argc, i32* %2, align 4, !llfi_index !55
  store i8** %argv, i8*** %3, align 8, !llfi_index !56
  %4 = load i32* %2, align 4, !llfi_index !57
  %5 = load i8*** %3, align 8, !llfi_index !58
  %6 = load i8*** %3, align 8, !llfi_index !58
  %check_cmp = icmp eq i8** %5, %6
  br i1 %check_cmp, label %7, label %checkBb

checkBb:                                          ; preds = %0
  call void @check_flag()
  br label %7

; <label>:7                                       ; preds = %checkBb, %0
  call void @_Z7runTestiPPc(i32 %4, i8** %5), !llfi_index !59
  ret i32 0, !llfi_index !60
}

; Function Attrs: uwtable
define void @_Z7runTestiPPc(i32 %argc, i8** %argv) #4 {
  %1 = alloca i32, align 4, !llfi_index !61
  %2 = alloca i8**, align 8, !llfi_index !62
  %max_rows = alloca i32, align 4, !llfi_index !63
  %max_cols = alloca i32, align 4, !llfi_index !64
  %penalty = alloca i32, align 4, !llfi_index !65
  %input_itemsets = alloca i32*, align 8, !llfi_index !66
  %output_itemsets = alloca i32*, align 8, !llfi_index !67
  %referrence = alloca i32*, align 8, !llfi_index !68
  %omp_num_threads = alloca i32, align 4, !llfi_index !69
  %i = alloca i32, align 4, !llfi_index !70
  %j = alloca i32, align 4, !llfi_index !71
  %i1 = alloca i32, align 4, !llfi_index !72
  %j2 = alloca i32, align 4, !llfi_index !73
  %i3 = alloca i32, align 4, !llfi_index !74
  %j4 = alloca i32, align 4, !llfi_index !75
  %i5 = alloca i32, align 4, !llfi_index !76
  %j6 = alloca i32, align 4, !llfi_index !77
  %start_time = alloca i64, align 8, !llfi_index !78
  %end_time = alloca i64, align 8, !llfi_index !79
  %fpo = alloca %struct._IO_FILE*, align 8, !llfi_index !80
  %i7 = alloca i32, align 4, !llfi_index !81
  %j8 = alloca i32, align 4, !llfi_index !82
  %nw = alloca i32, align 4, !llfi_index !83
  %n = alloca i32, align 4, !llfi_index !84
  %w = alloca i32, align 4, !llfi_index !85
  %traceback = alloca i32, align 4, !llfi_index !86
  %new_nw = alloca i32, align 4, !llfi_index !87
  %new_w = alloca i32, align 4, !llfi_index !88
  %new_n = alloca i32, align 4, !llfi_index !89
  store i32 %argc, i32* %1, align 4, !llfi_index !90
  store i8** %argv, i8*** %2, align 8, !llfi_index !91
  %3 = load i32* %1, align 4, !llfi_index !92
  %4 = icmp eq i32 %3, 4, !llfi_index !93
  br i1 %4, label %5, label %31, !llfi_index !94

; <label>:5                                       ; preds = %0
  %6 = load i8*** %2, align 8, !llfi_index !95
  %7 = getelementptr inbounds i8** %6, i64 1, !llfi_index !96
  %8 = getelementptr inbounds i8** %6, i64 1, !llfi_index !96
  %check_cmp = icmp eq i8** %7, %8
  br i1 %check_cmp, label %9, label %checkBb

checkBb:                                          ; preds = %5
  call void @check_flag()
  br label %9

; <label>:9                                       ; preds = %checkBb, %5
  %10 = load i8** %7, align 8, !llfi_index !97
  %11 = call i32 @atoi(i8* %10) #8, !llfi_index !98
  store i32 %11, i32* %max_rows, align 4, !llfi_index !99
  %12 = load i8*** %2, align 8, !llfi_index !100
  %13 = load i8*** %2, align 8, !llfi_index !100
  %14 = getelementptr inbounds i8** %12, i64 1, !llfi_index !101
  %15 = getelementptr inbounds i8** %13, i64 1, !llfi_index !101
  %16 = load i8** %14, align 8, !llfi_index !102
  %17 = load i8** %15, align 8, !llfi_index !102
  %check_cmp1 = icmp eq i8* %16, %17
  br i1 %check_cmp1, label %18, label %checkBb2

checkBb2:                                         ; preds = %9
  call void @check_flag()
  br label %18

; <label>:18                                      ; preds = %checkBb2, %9
  %19 = call i32 @atoi(i8* %16) #8, !llfi_index !103
  store i32 %19, i32* %max_cols, align 4, !llfi_index !104
  %20 = load i8*** %2, align 8, !llfi_index !105
  %21 = getelementptr inbounds i8** %20, i64 2, !llfi_index !106
  %22 = getelementptr inbounds i8** %20, i64 2, !llfi_index !106
  %23 = load i8** %21, align 8, !llfi_index !107
  %24 = load i8** %22, align 8, !llfi_index !107
  %check_cmp3 = icmp eq i8* %23, %24
  br i1 %check_cmp3, label %25, label %checkBb4

checkBb4:                                         ; preds = %18
  call void @check_flag()
  br label %25

; <label>:25                                      ; preds = %checkBb4, %18
  %26 = call i32 @atoi(i8* %23) #8, !llfi_index !108
  store i32 %26, i32* %penalty, align 4, !llfi_index !109
  %27 = load i8*** %2, align 8, !llfi_index !110
  %28 = getelementptr inbounds i8** %27, i64 3, !llfi_index !111
  %29 = load i8** %28, align 8, !llfi_index !112
  %30 = call i32 @atoi(i8* %29) #8, !llfi_index !113
  store i32 %30, i32* %omp_num_threads, align 4, !llfi_index !114
  br label %34, !llfi_index !115

; <label>:31                                      ; preds = %0
  %32 = load i32* %1, align 4, !llfi_index !116
  %33 = load i8*** %2, align 8, !llfi_index !117
  call void @_Z5usageiPPc(i32 %32, i8** %33), !llfi_index !118
  br label %34, !llfi_index !119

; <label>:34                                      ; preds = %31, %25
  %35 = load i32* %max_rows, align 4, !llfi_index !120
  %36 = load i32* %max_rows, align 4, !llfi_index !120
  %37 = add nsw i32 %35, 1, !llfi_index !121
  %38 = add nsw i32 %36, 1, !llfi_index !121
  %check_cmp5 = icmp eq i32 %37, %38
  br i1 %check_cmp5, label %39, label %checkBb6

checkBb6:                                         ; preds = %34
  call void @check_flag()
  br label %39

; <label>:39                                      ; preds = %checkBb6, %34
  store i32 %37, i32* %max_rows, align 4, !llfi_index !122
  %40 = load i32* %max_cols, align 4, !llfi_index !123
  %41 = add nsw i32 %40, 1, !llfi_index !124
  %42 = add nsw i32 %40, 1, !llfi_index !124
  %check_cmp7 = icmp eq i32 %41, %42
  br i1 %check_cmp7, label %43, label %checkBb8

checkBb8:                                         ; preds = %39
  call void @check_flag()
  br label %43

; <label>:43                                      ; preds = %checkBb8, %39
  store i32 %41, i32* %max_cols, align 4, !llfi_index !125
  %44 = load i32* %max_rows, align 4, !llfi_index !126
  %45 = load i32* %max_cols, align 4, !llfi_index !127
  %46 = mul nsw i32 %44, %45, !llfi_index !128
  %47 = sext i32 %46 to i64, !llfi_index !129
  %48 = mul i64 %47, 4, !llfi_index !130
  %49 = call noalias i8* @malloc(i64 %48) #7, !llfi_index !131
  %50 = bitcast i8* %49 to i32*, !llfi_index !132
  store i32* %50, i32** %referrence, align 8, !llfi_index !133
  %51 = load i32* %max_rows, align 4, !llfi_index !134
  %52 = load i32* %max_cols, align 4, !llfi_index !135
  %53 = mul nsw i32 %51, %52, !llfi_index !136
  %54 = sext i32 %53 to i64, !llfi_index !137
  %55 = mul i64 %54, 4, !llfi_index !138
  %56 = call noalias i8* @malloc(i64 %55) #7, !llfi_index !139
  %57 = bitcast i8* %56 to i32*, !llfi_index !140
  store i32* %57, i32** %input_itemsets, align 8, !llfi_index !141
  %58 = load i32* %max_rows, align 4, !llfi_index !142
  %59 = load i32* %max_cols, align 4, !llfi_index !143
  %60 = mul nsw i32 %58, %59, !llfi_index !144
  %61 = sext i32 %60 to i64, !llfi_index !145
  %62 = mul i64 %61, 4, !llfi_index !146
  %63 = call noalias i8* @malloc(i64 %62) #7, !llfi_index !147
  %64 = bitcast i8* %63 to i32*, !llfi_index !148
  store i32* %64, i32** %output_itemsets, align 8, !llfi_index !149
  %65 = load i32** %input_itemsets, align 8, !llfi_index !150
  %66 = icmp ne i32* %65, null, !llfi_index !151
  br i1 %66, label %70, label %67, !llfi_index !152

; <label>:67                                      ; preds = %43
  %68 = load %struct._IO_FILE** @stderr, align 8, !llfi_index !153
  %69 = call i32 (%struct._IO_FILE*, i8*, ...)* @fprintf(%struct._IO_FILE* %68, i8* getelementptr inbounds ([31 x i8]* @.str5, i32 0, i32 0)), !llfi_index !154
  br label %70, !llfi_index !155

; <label>:70                                      ; preds = %67, %43
  call void @srand(i32 7) #7, !llfi_index !156
  store i32 0, i32* %i, align 4, !llfi_index !157
  br label %71, !llfi_index !158

; <label>:71                                      ; preds = %111, %70
  %72 = load i32* %i, align 4, !llfi_index !159
  %73 = load i32* %i, align 4, !llfi_index !159
  %74 = load i32* %max_cols, align 4, !llfi_index !160
  %75 = load i32* %max_cols, align 4, !llfi_index !160
  %76 = icmp slt i32 %72, %74, !llfi_index !161
  %77 = icmp slt i32 %73, %75, !llfi_index !161
  %check_cmp9 = icmp eq i1 %76, %77
  br i1 %check_cmp9, label %78, label %checkBb10

checkBb10:                                        ; preds = %71
  call void @check_flag()
  br label %78

; <label>:78                                      ; preds = %checkBb10, %71
  br i1 %76, label %79, label %112, !llfi_index !162

; <label>:79                                      ; preds = %78
  store i32 0, i32* %j, align 4, !llfi_index !163
  br label %80, !llfi_index !164

; <label>:80                                      ; preds = %104, %79
  %81 = load i32* %j, align 4, !llfi_index !165
  %82 = load i32* %j, align 4, !llfi_index !165
  %83 = load i32* %max_rows, align 4, !llfi_index !166
  %84 = load i32* %max_rows, align 4, !llfi_index !166
  %85 = icmp slt i32 %81, %83, !llfi_index !167
  %86 = icmp slt i32 %82, %84, !llfi_index !167
  %check_cmp11 = icmp eq i1 %85, %86
  br i1 %check_cmp11, label %87, label %checkBb12

checkBb12:                                        ; preds = %80
  call void @check_flag()
  br label %87

; <label>:87                                      ; preds = %checkBb12, %80
  br i1 %85, label %88, label %105, !llfi_index !168

; <label>:88                                      ; preds = %87
  %89 = load i32* %i, align 4, !llfi_index !169
  %90 = load i32* %max_cols, align 4, !llfi_index !170
  %91 = load i32* %max_cols, align 4, !llfi_index !170
  %check_cmp13 = icmp eq i32 %90, %91
  br i1 %check_cmp13, label %92, label %checkBb14

checkBb14:                                        ; preds = %88
  call void @check_flag()
  br label %92

; <label>:92                                      ; preds = %checkBb14, %88
  %93 = mul nsw i32 %89, %90, !llfi_index !171
  %94 = load i32* %j, align 4, !llfi_index !172
  %95 = add nsw i32 %93, %94, !llfi_index !173
  %96 = sext i32 %95 to i64, !llfi_index !174
  %97 = load i32** %input_itemsets, align 8, !llfi_index !175
  %98 = getelementptr inbounds i32* %97, i64 %96, !llfi_index !176
  store i32 0, i32* %98, align 4, !llfi_index !177
  br label %99, !llfi_index !178

; <label>:99                                      ; preds = %92
  %100 = load i32* %j, align 4, !llfi_index !179
  %101 = load i32* %j, align 4, !llfi_index !179
  %102 = add nsw i32 %100, 1, !llfi_index !180
  %103 = add nsw i32 %101, 1, !llfi_index !180
  %check_cmp15 = icmp eq i32 %102, %103
  br i1 %check_cmp15, label %104, label %checkBb16

checkBb16:                                        ; preds = %99
  call void @check_flag()
  br label %104

; <label>:104                                     ; preds = %checkBb16, %99
  store i32 %102, i32* %j, align 4, !llfi_index !181
  br label %80, !llfi_index !182

; <label>:105                                     ; preds = %87
  br label %106, !llfi_index !183

; <label>:106                                     ; preds = %105
  %107 = load i32* %i, align 4, !llfi_index !184
  %108 = load i32* %i, align 4, !llfi_index !184
  %109 = add nsw i32 %107, 1, !llfi_index !185
  %110 = add nsw i32 %108, 1, !llfi_index !185
  %check_cmp17 = icmp eq i32 %109, %110
  br i1 %check_cmp17, label %111, label %checkBb18

checkBb18:                                        ; preds = %106
  call void @check_flag()
  br label %111

; <label>:111                                     ; preds = %checkBb18, %106
  store i32 %109, i32* %i, align 4, !llfi_index !186
  br label %71, !llfi_index !187

; <label>:112                                     ; preds = %78
  %113 = call i32 (i8*, ...)* @printf(i8* getelementptr inbounds ([24 x i8]* @.str6, i32 0, i32 0)), !llfi_index !188
  store i32 1, i32* %i1, align 4, !llfi_index !189
  br label %114, !llfi_index !190

; <label>:114                                     ; preds = %147, %112
  %115 = load i32* %i1, align 4, !llfi_index !191
  %116 = load i32* %i1, align 4, !llfi_index !191
  %117 = load i32* %max_rows, align 4, !llfi_index !192
  %118 = load i32* %max_rows, align 4, !llfi_index !192
  %119 = icmp slt i32 %115, %117, !llfi_index !193
  %120 = icmp slt i32 %116, %118, !llfi_index !193
  %check_cmp19 = icmp eq i1 %119, %120
  br i1 %check_cmp19, label %121, label %checkBb20

checkBb20:                                        ; preds = %114
  call void @check_flag()
  br label %121

; <label>:121                                     ; preds = %checkBb20, %114
  br i1 %119, label %122, label %148, !llfi_index !194

; <label>:122                                     ; preds = %121
  %123 = call i32 @rand() #7, !llfi_index !195
  %124 = srem i32 %123, 10, !llfi_index !196
  %125 = srem i32 %123, 10, !llfi_index !196
  %126 = add nsw i32 %124, 1, !llfi_index !197
  %127 = add nsw i32 %125, 1, !llfi_index !197
  %check_cmp21 = icmp eq i32 %126, %127
  br i1 %check_cmp21, label %128, label %checkBb22

checkBb22:                                        ; preds = %122
  call void @check_flag()
  br label %128

; <label>:128                                     ; preds = %checkBb22, %122
  %129 = load i32* %i1, align 4, !llfi_index !198
  %130 = load i32* %i1, align 4, !llfi_index !198
  %131 = load i32* %max_cols, align 4, !llfi_index !199
  %132 = load i32* %max_cols, align 4, !llfi_index !199
  %133 = mul nsw i32 %129, %131, !llfi_index !200
  %134 = mul nsw i32 %130, %132, !llfi_index !200
  %135 = sext i32 %133 to i64, !llfi_index !201
  %136 = sext i32 %134 to i64, !llfi_index !201
  %137 = load i32** %input_itemsets, align 8, !llfi_index !202
  %138 = load i32** %input_itemsets, align 8, !llfi_index !202
  %139 = getelementptr inbounds i32* %137, i64 %135, !llfi_index !203
  %140 = getelementptr inbounds i32* %138, i64 %136, !llfi_index !203
  %check_cmp23 = icmp eq i32* %139, %140
  br i1 %check_cmp23, label %141, label %checkBb24

checkBb24:                                        ; preds = %128
  call void @check_flag()
  br label %141

; <label>:141                                     ; preds = %checkBb24, %128
  store i32 %126, i32* %139, align 4, !llfi_index !204
  br label %142, !llfi_index !205

; <label>:142                                     ; preds = %141
  %143 = load i32* %i1, align 4, !llfi_index !206
  %144 = load i32* %i1, align 4, !llfi_index !206
  %145 = add nsw i32 %143, 1, !llfi_index !207
  %146 = add nsw i32 %144, 1, !llfi_index !207
  %check_cmp25 = icmp eq i32 %145, %146
  br i1 %check_cmp25, label %147, label %checkBb26

checkBb26:                                        ; preds = %142
  call void @check_flag()
  br label %147

; <label>:147                                     ; preds = %checkBb26, %142
  store i32 %145, i32* %i1, align 4, !llfi_index !208
  br label %114, !llfi_index !209

; <label>:148                                     ; preds = %121
  store i32 1, i32* %j2, align 4, !llfi_index !210
  br label %149, !llfi_index !211

; <label>:149                                     ; preds = %178, %148
  %150 = load i32* %j2, align 4, !llfi_index !212
  %151 = load i32* %j2, align 4, !llfi_index !212
  %152 = load i32* %max_cols, align 4, !llfi_index !213
  %153 = load i32* %max_cols, align 4, !llfi_index !213
  %154 = icmp slt i32 %150, %152, !llfi_index !214
  %155 = icmp slt i32 %151, %153, !llfi_index !214
  %check_cmp27 = icmp eq i1 %154, %155
  br i1 %check_cmp27, label %156, label %checkBb28

checkBb28:                                        ; preds = %149
  call void @check_flag()
  br label %156

; <label>:156                                     ; preds = %checkBb28, %149
  br i1 %154, label %157, label %179, !llfi_index !215

; <label>:157                                     ; preds = %156
  %158 = call i32 @rand() #7, !llfi_index !216
  %159 = srem i32 %158, 10, !llfi_index !217
  %160 = srem i32 %158, 10, !llfi_index !217
  %161 = add nsw i32 %159, 1, !llfi_index !218
  %162 = add nsw i32 %160, 1, !llfi_index !218
  %check_cmp29 = icmp eq i32 %161, %162
  br i1 %check_cmp29, label %163, label %checkBb30

checkBb30:                                        ; preds = %157
  call void @check_flag()
  br label %163

; <label>:163                                     ; preds = %checkBb30, %157
  %164 = load i32* %j2, align 4, !llfi_index !219
  %165 = load i32* %j2, align 4, !llfi_index !219
  %166 = sext i32 %164 to i64, !llfi_index !220
  %167 = sext i32 %165 to i64, !llfi_index !220
  %168 = load i32** %input_itemsets, align 8, !llfi_index !221
  %169 = load i32** %input_itemsets, align 8, !llfi_index !221
  %170 = getelementptr inbounds i32* %168, i64 %166, !llfi_index !222
  %171 = getelementptr inbounds i32* %169, i64 %167, !llfi_index !222
  %check_cmp31 = icmp eq i32* %170, %171
  br i1 %check_cmp31, label %172, label %checkBb32

checkBb32:                                        ; preds = %163
  call void @check_flag()
  br label %172

; <label>:172                                     ; preds = %checkBb32, %163
  store i32 %161, i32* %170, align 4, !llfi_index !223
  br label %173, !llfi_index !224

; <label>:173                                     ; preds = %172
  %174 = load i32* %j2, align 4, !llfi_index !225
  %175 = load i32* %j2, align 4, !llfi_index !225
  %176 = add nsw i32 %174, 1, !llfi_index !226
  %177 = add nsw i32 %175, 1, !llfi_index !226
  %check_cmp33 = icmp eq i32 %176, %177
  br i1 %check_cmp33, label %178, label %checkBb34

checkBb34:                                        ; preds = %173
  call void @check_flag()
  br label %178

; <label>:178                                     ; preds = %checkBb34, %173
  store i32 %176, i32* %j2, align 4, !llfi_index !227
  br label %149, !llfi_index !228

; <label>:179                                     ; preds = %156
  store i32 1, i32* %i3, align 4, !llfi_index !229
  br label %180, !llfi_index !230

; <label>:180                                     ; preds = %235, %179
  %181 = load i32* %i3, align 4, !llfi_index !231
  %182 = load i32* %i3, align 4, !llfi_index !231
  %183 = load i32* %max_cols, align 4, !llfi_index !232
  %184 = icmp slt i32 %181, %183, !llfi_index !233
  %185 = icmp slt i32 %182, %183, !llfi_index !233
  %check_cmp35 = icmp eq i1 %184, %185
  br i1 %check_cmp35, label %186, label %checkBb36

checkBb36:                                        ; preds = %180
  call void @check_flag()
  br label %186

; <label>:186                                     ; preds = %checkBb36, %180
  br i1 %184, label %187, label %236, !llfi_index !234

; <label>:187                                     ; preds = %186
  store i32 1, i32* %j4, align 4, !llfi_index !235
  br label %188, !llfi_index !236

; <label>:188                                     ; preds = %228, %187
  %189 = load i32* %j4, align 4, !llfi_index !237
  %190 = load i32* %j4, align 4, !llfi_index !237
  %191 = load i32* %max_rows, align 4, !llfi_index !238
  %192 = icmp slt i32 %189, %191, !llfi_index !239
  %193 = icmp slt i32 %190, %191, !llfi_index !239
  %check_cmp37 = icmp eq i1 %192, %193
  br i1 %check_cmp37, label %194, label %checkBb38

checkBb38:                                        ; preds = %188
  call void @check_flag()
  br label %194

; <label>:194                                     ; preds = %checkBb38, %188
  br i1 %192, label %195, label %229, !llfi_index !240

; <label>:195                                     ; preds = %194
  %196 = load i32* %j4, align 4, !llfi_index !241
  %197 = sext i32 %196 to i64, !llfi_index !242
  %198 = load i32** %input_itemsets, align 8, !llfi_index !243
  %199 = getelementptr inbounds i32* %198, i64 %197, !llfi_index !244
  %200 = load i32* %199, align 4, !llfi_index !245
  %201 = sext i32 %200 to i64, !llfi_index !246
  %202 = load i32* %i3, align 4, !llfi_index !247
  %203 = load i32* %max_cols, align 4, !llfi_index !248
  %204 = mul nsw i32 %202, %203, !llfi_index !249
  %205 = sext i32 %204 to i64, !llfi_index !250
  %206 = load i32** %input_itemsets, align 8, !llfi_index !251
  %207 = getelementptr inbounds i32* %206, i64 %205, !llfi_index !252
  %208 = load i32* %207, align 4, !llfi_index !253
  %209 = sext i32 %208 to i64, !llfi_index !254
  %210 = getelementptr inbounds [24 x [24 x i32]]* @blosum62, i32 0, i64 %209, !llfi_index !255
  %211 = getelementptr inbounds [24 x i32]* %210, i32 0, i64 %201, !llfi_index !256
  %212 = load i32* %211, align 4, !llfi_index !257
  %213 = load i32* %211, align 4, !llfi_index !257
  %check_cmp39 = icmp eq i32 %212, %213
  br i1 %check_cmp39, label %214, label %checkBb40

checkBb40:                                        ; preds = %195
  call void @check_flag()
  br label %214

; <label>:214                                     ; preds = %checkBb40, %195
  %215 = load i32* %i3, align 4, !llfi_index !258
  %216 = load i32* %max_cols, align 4, !llfi_index !259
  %217 = mul nsw i32 %215, %216, !llfi_index !260
  %218 = load i32* %j4, align 4, !llfi_index !261
  %219 = add nsw i32 %217, %218, !llfi_index !262
  %220 = sext i32 %219 to i64, !llfi_index !263
  %221 = load i32** %referrence, align 8, !llfi_index !264
  %222 = getelementptr inbounds i32* %221, i64 %220, !llfi_index !265
  store i32 %212, i32* %222, align 4, !llfi_index !266
  br label %223, !llfi_index !267

; <label>:223                                     ; preds = %214
  %224 = load i32* %j4, align 4, !llfi_index !268
  %225 = load i32* %j4, align 4, !llfi_index !268
  %226 = add nsw i32 %224, 1, !llfi_index !269
  %227 = add nsw i32 %225, 1, !llfi_index !269
  %check_cmp41 = icmp eq i32 %226, %227
  br i1 %check_cmp41, label %228, label %checkBb42

checkBb42:                                        ; preds = %223
  call void @check_flag()
  br label %228

; <label>:228                                     ; preds = %checkBb42, %223
  store i32 %226, i32* %j4, align 4, !llfi_index !270
  br label %188, !llfi_index !271

; <label>:229                                     ; preds = %194
  br label %230, !llfi_index !272

; <label>:230                                     ; preds = %229
  %231 = load i32* %i3, align 4, !llfi_index !273
  %232 = load i32* %i3, align 4, !llfi_index !273
  %233 = add nsw i32 %231, 1, !llfi_index !274
  %234 = add nsw i32 %232, 1, !llfi_index !274
  %check_cmp43 = icmp eq i32 %233, %234
  br i1 %check_cmp43, label %235, label %checkBb44

checkBb44:                                        ; preds = %230
  call void @check_flag()
  br label %235

; <label>:235                                     ; preds = %checkBb44, %230
  store i32 %233, i32* %i3, align 4, !llfi_index !275
  br label %180, !llfi_index !276

; <label>:236                                     ; preds = %186
  store i32 1, i32* %i5, align 4, !llfi_index !277
  br label %237, !llfi_index !278

; <label>:237                                     ; preds = %252, %236
  %238 = load i32* %i5, align 4, !llfi_index !279
  %239 = load i32* %max_rows, align 4, !llfi_index !280
  %240 = icmp slt i32 %238, %239, !llfi_index !281
  br i1 %240, label %241, label %255, !llfi_index !282

; <label>:241                                     ; preds = %237
  %242 = load i32* %i5, align 4, !llfi_index !283
  %243 = sub nsw i32 0, %242, !llfi_index !284
  %244 = load i32* %penalty, align 4, !llfi_index !285
  %245 = mul nsw i32 %243, %244, !llfi_index !286
  %246 = load i32* %i5, align 4, !llfi_index !287
  %247 = load i32* %max_cols, align 4, !llfi_index !288
  %248 = mul nsw i32 %246, %247, !llfi_index !289
  %249 = sext i32 %248 to i64, !llfi_index !290
  %250 = load i32** %input_itemsets, align 8, !llfi_index !291
  %251 = getelementptr inbounds i32* %250, i64 %249, !llfi_index !292
  store i32 %245, i32* %251, align 4, !llfi_index !293
  br label %252, !llfi_index !294

; <label>:252                                     ; preds = %241
  %253 = load i32* %i5, align 4, !llfi_index !295
  %254 = add nsw i32 %253, 1, !llfi_index !296
  store i32 %254, i32* %i5, align 4, !llfi_index !297
  br label %237, !llfi_index !298

; <label>:255                                     ; preds = %237
  store i32 1, i32* %j6, align 4, !llfi_index !299
  br label %256, !llfi_index !300

; <label>:256                                     ; preds = %269, %255
  %257 = load i32* %j6, align 4, !llfi_index !301
  %258 = load i32* %max_cols, align 4, !llfi_index !302
  %259 = icmp slt i32 %257, %258, !llfi_index !303
  br i1 %259, label %260, label %272, !llfi_index !304

; <label>:260                                     ; preds = %256
  %261 = load i32* %j6, align 4, !llfi_index !305
  %262 = sub nsw i32 0, %261, !llfi_index !306
  %263 = load i32* %penalty, align 4, !llfi_index !307
  %264 = mul nsw i32 %262, %263, !llfi_index !308
  %265 = load i32* %j6, align 4, !llfi_index !309
  %266 = sext i32 %265 to i64, !llfi_index !310
  %267 = load i32** %input_itemsets, align 8, !llfi_index !311
  %268 = getelementptr inbounds i32* %267, i64 %266, !llfi_index !312
  store i32 %264, i32* %268, align 4, !llfi_index !313
  br label %269, !llfi_index !314

; <label>:269                                     ; preds = %260
  %270 = load i32* %j6, align 4, !llfi_index !315
  %271 = add nsw i32 %270, 1, !llfi_index !316
  store i32 %271, i32* %j6, align 4, !llfi_index !317
  br label %256, !llfi_index !318

; <label>:272                                     ; preds = %256
  %273 = load i32* %omp_num_threads, align 4, !llfi_index !319
  %274 = call i32 (i8*, ...)* @printf(i8* getelementptr inbounds ([20 x i8]* @.str7, i32 0, i32 0), i32 %273), !llfi_index !320
  %275 = call i32 (i8*, ...)* @printf(i8* getelementptr inbounds ([28 x i8]* @.str8, i32 0, i32 0)), !llfi_index !321
  %276 = call i64 @_Z8get_timev(), !llfi_index !322
  store i64 %276, i64* %start_time, align 8, !llfi_index !323
  %277 = load i32** %input_itemsets, align 8, !llfi_index !324
  %278 = load i32** %output_itemsets, align 8, !llfi_index !325
  %279 = load i32** %referrence, align 8, !llfi_index !326
  %280 = load i32* %max_rows, align 4, !llfi_index !327
  %281 = load i32* %max_cols, align 4, !llfi_index !328
  %282 = load i32* %penalty, align 4, !llfi_index !329
  call void @_Z12nw_optimizedPiS_S_iii(i32* %277, i32* %278, i32* %279, i32 %280, i32 %281, i32 %282), !llfi_index !330
  %283 = call i64 @_Z8get_timev(), !llfi_index !331
  store i64 %283, i64* %end_time, align 8, !llfi_index !332
  %284 = load i64* %end_time, align 8, !llfi_index !333
  %285 = load i64* %start_time, align 8, !llfi_index !334
  %286 = sub nsw i64 %284, %285, !llfi_index !335
  %287 = sitofp i64 %286 to float, !llfi_index !336
  %288 = fdiv float %287, 1.000000e+06, !llfi_index !337
  %289 = fpext float %288 to double, !llfi_index !338
  %290 = call i32 (i8*, ...)* @printf(i8* getelementptr inbounds ([26 x i8]* @.str9, i32 0, i32 0), double %289), !llfi_index !339
  %291 = call %struct._IO_FILE* @fopen(i8* getelementptr inbounds ([11 x i8]* @.str10, i32 0, i32 0), i8* getelementptr inbounds ([2 x i8]* @.str11, i32 0, i32 0)), !llfi_index !340
  store %struct._IO_FILE* %291, %struct._IO_FILE** %fpo, align 8, !llfi_index !341
  %292 = load %struct._IO_FILE** %fpo, align 8, !llfi_index !342
  %293 = call i32 (%struct._IO_FILE*, i8*, ...)* @fprintf(%struct._IO_FILE* %292, i8* getelementptr inbounds ([28 x i8]* @.str123, i32 0, i32 0)), !llfi_index !343
  %294 = load i32* %max_rows, align 4, !llfi_index !344
  %295 = sub nsw i32 %294, 2, !llfi_index !345
  store i32 %295, i32* %i7, align 4, !llfi_index !346
  %296 = load i32* %max_rows, align 4, !llfi_index !347
  %297 = sub nsw i32 %296, 2, !llfi_index !348
  store i32 %297, i32* %j8, align 4, !llfi_index !349
  br label %298, !llfi_index !350

; <label>:298                                     ; preds = %511, %505, %498, %489, %272
  %299 = load i32* %i7, align 4, !llfi_index !351
  %300 = icmp sge i32 %299, 0, !llfi_index !352
  %301 = load i32* %j8, align 4, !llfi_index !353
  %302 = icmp sge i32 %301, 0, !llfi_index !354
  %303 = icmp sge i32 %301, 0, !llfi_index !354
  %check_cmp45 = icmp eq i1 %302, %303
  br i1 %check_cmp45, label %304, label %checkBb46

checkBb46:                                        ; preds = %298
  call void @check_flag()
  br label %304

; <label>:304                                     ; preds = %checkBb46, %298
  br i1 %302, label %305, label %512, !llfi_index !355

; <label>:305                                     ; preds = %304
  %306 = load i32* %i7, align 4, !llfi_index !356
  %307 = load i32* %max_rows, align 4, !llfi_index !357
  %308 = sub nsw i32 %307, 2, !llfi_index !358
  %309 = sub nsw i32 %307, 2, !llfi_index !358
  %check_cmp47 = icmp eq i32 %308, %309
  br i1 %check_cmp47, label %310, label %checkBb48

checkBb48:                                        ; preds = %305
  call void @check_flag()
  br label %310

; <label>:310                                     ; preds = %checkBb48, %305
  %311 = icmp eq i32 %306, %308, !llfi_index !359
  br i1 %311, label %312, label %336, !llfi_index !360

; <label>:312                                     ; preds = %310
  %313 = load i32* %j8, align 4, !llfi_index !361
  %314 = load i32* %j8, align 4, !llfi_index !361
  %315 = load i32* %max_rows, align 4, !llfi_index !362
  %316 = load i32* %max_rows, align 4, !llfi_index !362
  %317 = sub nsw i32 %315, 2, !llfi_index !363
  %318 = sub nsw i32 %316, 2, !llfi_index !363
  %319 = icmp eq i32 %313, %317, !llfi_index !364
  %320 = icmp eq i32 %314, %318, !llfi_index !364
  %check_cmp49 = icmp eq i1 %319, %320
  br i1 %check_cmp49, label %321, label %checkBb50

checkBb50:                                        ; preds = %312
  call void @check_flag()
  br label %321

; <label>:321                                     ; preds = %checkBb50, %312
  br i1 %319, label %322, label %336, !llfi_index !365

; <label>:322                                     ; preds = %321
  %323 = load %struct._IO_FILE** %fpo, align 8, !llfi_index !366
  %324 = load i32* %i7, align 4, !llfi_index !367
  %325 = load i32* %max_cols, align 4, !llfi_index !368
  %326 = mul nsw i32 %324, %325, !llfi_index !369
  %327 = load i32* %j8, align 4, !llfi_index !370
  %328 = add nsw i32 %326, %327, !llfi_index !371
  %329 = sext i32 %328 to i64, !llfi_index !372
  %330 = load i32** %input_itemsets, align 8, !llfi_index !373
  %331 = getelementptr inbounds i32* %330, i64 %329, !llfi_index !374
  %332 = load i32* %331, align 4, !llfi_index !375
  %333 = load i32* %331, align 4, !llfi_index !375
  %check_cmp51 = icmp eq i32 %332, %333
  br i1 %check_cmp51, label %334, label %checkBb52

checkBb52:                                        ; preds = %322
  call void @check_flag()
  br label %334

; <label>:334                                     ; preds = %checkBb52, %322
  %335 = call i32 (%struct._IO_FILE*, i8*, ...)* @fprintf(%struct._IO_FILE* %323, i8* getelementptr inbounds ([4 x i8]* @.str13, i32 0, i32 0), i32 %332), !llfi_index !376
  br label %336, !llfi_index !377

; <label>:336                                     ; preds = %334, %321, %310
  %337 = load i32* %i7, align 4, !llfi_index !378
  %338 = icmp eq i32 %337, 0, !llfi_index !379
  br i1 %338, label %339, label %346, !llfi_index !380

; <label>:339                                     ; preds = %336
  %340 = load i32* %j8, align 4, !llfi_index !381
  %341 = load i32* %j8, align 4, !llfi_index !381
  %342 = icmp eq i32 %340, 0, !llfi_index !382
  %343 = icmp eq i32 %341, 0, !llfi_index !382
  %check_cmp53 = icmp eq i1 %342, %343
  br i1 %check_cmp53, label %344, label %checkBb54

checkBb54:                                        ; preds = %339
  call void @check_flag()
  br label %344

; <label>:344                                     ; preds = %checkBb54, %339
  br i1 %342, label %345, label %346, !llfi_index !383

; <label>:345                                     ; preds = %344
  br label %512, !llfi_index !384

; <label>:346                                     ; preds = %344, %336
  %347 = load i32* %i7, align 4, !llfi_index !385
  %348 = icmp sgt i32 %347, 0, !llfi_index !386
  %349 = icmp sgt i32 %347, 0, !llfi_index !386
  %check_cmp55 = icmp eq i1 %348, %349
  br i1 %check_cmp55, label %350, label %checkBb56

checkBb56:                                        ; preds = %346
  call void @check_flag()
  br label %350

; <label>:350                                     ; preds = %checkBb56, %346
  br i1 %348, label %351, label %390, !llfi_index !387

; <label>:351                                     ; preds = %350
  %352 = load i32* %j8, align 4, !llfi_index !388
  %353 = icmp sgt i32 %352, 0, !llfi_index !389
  %354 = icmp sgt i32 %352, 0, !llfi_index !389
  %check_cmp57 = icmp eq i1 %353, %354
  br i1 %check_cmp57, label %355, label %checkBb58

checkBb58:                                        ; preds = %351
  call void @check_flag()
  br label %355

; <label>:355                                     ; preds = %checkBb58, %351
  br i1 %353, label %356, label %390, !llfi_index !390

; <label>:356                                     ; preds = %355
  %357 = load i32* %i7, align 4, !llfi_index !391
  %358 = sub nsw i32 %357, 1, !llfi_index !392
  %359 = load i32* %max_cols, align 4, !llfi_index !393
  %360 = mul nsw i32 %358, %359, !llfi_index !394
  %361 = load i32* %j8, align 4, !llfi_index !395
  %362 = add nsw i32 %360, %361, !llfi_index !396
  %363 = sub nsw i32 %362, 1, !llfi_index !397
  %364 = sext i32 %363 to i64, !llfi_index !398
  %365 = load i32** %input_itemsets, align 8, !llfi_index !399
  %366 = getelementptr inbounds i32* %365, i64 %364, !llfi_index !400
  %367 = load i32* %366, align 4, !llfi_index !401
  %368 = load i32* %366, align 4, !llfi_index !401
  %check_cmp59 = icmp eq i32 %367, %368
  br i1 %check_cmp59, label %369, label %checkBb60

checkBb60:                                        ; preds = %356
  call void @check_flag()
  br label %369

; <label>:369                                     ; preds = %checkBb60, %356
  store i32 %367, i32* %nw, align 4, !llfi_index !402
  %370 = load i32* %i7, align 4, !llfi_index !403
  %371 = load i32* %max_cols, align 4, !llfi_index !404
  %372 = mul nsw i32 %370, %371, !llfi_index !405
  %373 = load i32* %j8, align 4, !llfi_index !406
  %374 = add nsw i32 %372, %373, !llfi_index !407
  %375 = sub nsw i32 %374, 1, !llfi_index !408
  %376 = sext i32 %375 to i64, !llfi_index !409
  %377 = load i32** %input_itemsets, align 8, !llfi_index !410
  %378 = getelementptr inbounds i32* %377, i64 %376, !llfi_index !411
  %379 = load i32* %378, align 4, !llfi_index !412
  store i32 %379, i32* %w, align 4, !llfi_index !413
  %380 = load i32* %i7, align 4, !llfi_index !414
  %381 = sub nsw i32 %380, 1, !llfi_index !415
  %382 = load i32* %max_cols, align 4, !llfi_index !416
  %383 = mul nsw i32 %381, %382, !llfi_index !417
  %384 = load i32* %j8, align 4, !llfi_index !418
  %385 = add nsw i32 %383, %384, !llfi_index !419
  %386 = sext i32 %385 to i64, !llfi_index !420
  %387 = load i32** %input_itemsets, align 8, !llfi_index !421
  %388 = getelementptr inbounds i32* %387, i64 %386, !llfi_index !422
  %389 = load i32* %388, align 4, !llfi_index !423
  store i32 %389, i32* %n, align 4, !llfi_index !424
  br label %421, !llfi_index !425

; <label>:390                                     ; preds = %355, %350
  %391 = load i32* %i7, align 4, !llfi_index !426
  %392 = icmp eq i32 %391, 0, !llfi_index !427
  br i1 %392, label %393, label %404, !llfi_index !428

; <label>:393                                     ; preds = %390
  store i32 -999, i32* %n, align 4, !llfi_index !429
  store i32 -999, i32* %nw, align 4, !llfi_index !430
  %394 = load i32* %i7, align 4, !llfi_index !431
  %395 = load i32* %max_cols, align 4, !llfi_index !432
  %396 = mul nsw i32 %394, %395, !llfi_index !433
  %397 = load i32* %j8, align 4, !llfi_index !434
  %398 = add nsw i32 %396, %397, !llfi_index !435
  %399 = sub nsw i32 %398, 1, !llfi_index !436
  %400 = sext i32 %399 to i64, !llfi_index !437
  %401 = load i32** %input_itemsets, align 8, !llfi_index !438
  %402 = getelementptr inbounds i32* %401, i64 %400, !llfi_index !439
  %403 = load i32* %402, align 4, !llfi_index !440
  store i32 %403, i32* %w, align 4, !llfi_index !441
  br label %420, !llfi_index !442

; <label>:404                                     ; preds = %390
  %405 = load i32* %j8, align 4, !llfi_index !443
  %406 = icmp eq i32 %405, 0, !llfi_index !444
  br i1 %406, label %407, label %418, !llfi_index !445

; <label>:407                                     ; preds = %404
  store i32 -999, i32* %w, align 4, !llfi_index !446
  store i32 -999, i32* %nw, align 4, !llfi_index !447
  %408 = load i32* %i7, align 4, !llfi_index !448
  %409 = sub nsw i32 %408, 1, !llfi_index !449
  %410 = load i32* %max_cols, align 4, !llfi_index !450
  %411 = mul nsw i32 %409, %410, !llfi_index !451
  %412 = load i32* %j8, align 4, !llfi_index !452
  %413 = add nsw i32 %411, %412, !llfi_index !453
  %414 = sext i32 %413 to i64, !llfi_index !454
  %415 = load i32** %input_itemsets, align 8, !llfi_index !455
  %416 = getelementptr inbounds i32* %415, i64 %414, !llfi_index !456
  %417 = load i32* %416, align 4, !llfi_index !457
  store i32 %417, i32* %n, align 4, !llfi_index !458
  br label %419, !llfi_index !459

; <label>:418                                     ; preds = %404
  br label %419, !llfi_index !460

; <label>:419                                     ; preds = %418, %407
  br label %420, !llfi_index !461

; <label>:420                                     ; preds = %419, %393
  br label %421, !llfi_index !462

; <label>:421                                     ; preds = %420, %369
  %422 = load i32* %nw, align 4, !llfi_index !463
  %423 = load i32* %nw, align 4, !llfi_index !463
  %424 = load i32* %i7, align 4, !llfi_index !464
  %425 = load i32* %max_cols, align 4, !llfi_index !465
  %426 = mul nsw i32 %424, %425, !llfi_index !466
  %427 = load i32* %j8, align 4, !llfi_index !467
  %428 = add nsw i32 %426, %427, !llfi_index !468
  %429 = sext i32 %428 to i64, !llfi_index !469
  %430 = load i32** %referrence, align 8, !llfi_index !470
  %431 = getelementptr inbounds i32* %430, i64 %429, !llfi_index !471
  %432 = load i32* %431, align 4, !llfi_index !472
  %433 = load i32* %431, align 4, !llfi_index !472
  %434 = add nsw i32 %422, %432, !llfi_index !473
  %435 = add nsw i32 %423, %433, !llfi_index !473
  %check_cmp61 = icmp eq i32 %434, %435
  br i1 %check_cmp61, label %436, label %checkBb62

checkBb62:                                        ; preds = %421
  call void @check_flag()
  br label %436

; <label>:436                                     ; preds = %checkBb62, %421
  store i32 %434, i32* %new_nw, align 4, !llfi_index !474
  %437 = load i32* %w, align 4, !llfi_index !475
  %438 = load i32* %penalty, align 4, !llfi_index !476
  %439 = sub nsw i32 %437, %438, !llfi_index !477
  store i32 %439, i32* %new_w, align 4, !llfi_index !478
  %440 = load i32* %n, align 4, !llfi_index !479
  %441 = load i32* %penalty, align 4, !llfi_index !480
  %442 = sub nsw i32 %440, %441, !llfi_index !481
  store i32 %442, i32* %new_n, align 4, !llfi_index !482
  %443 = load i32* %new_nw, align 4, !llfi_index !483
  %444 = load i32* %new_nw, align 4, !llfi_index !483
  %check_cmp63 = icmp eq i32 %443, %444
  br i1 %check_cmp63, label %445, label %checkBb64

checkBb64:                                        ; preds = %436
  call void @check_flag()
  br label %445

; <label>:445                                     ; preds = %checkBb64, %436
  %446 = load i32* %new_w, align 4, !llfi_index !484
  %447 = load i32* %new_n, align 4, !llfi_index !485
  %448 = call i32 @_Z7maximumiii(i32 %443, i32 %446, i32 %447), !llfi_index !486
  store i32 %448, i32* %traceback, align 4, !llfi_index !487
  %449 = load i32* %traceback, align 4, !llfi_index !488
  %450 = load i32* %traceback, align 4, !llfi_index !488
  %451 = load i32* %new_nw, align 4, !llfi_index !489
  %452 = load i32* %new_nw, align 4, !llfi_index !489
  %453 = icmp eq i32 %449, %451, !llfi_index !490
  %454 = icmp eq i32 %450, %452, !llfi_index !490
  %check_cmp65 = icmp eq i1 %453, %454
  br i1 %check_cmp65, label %455, label %checkBb66

checkBb66:                                        ; preds = %445
  call void @check_flag()
  br label %455

; <label>:455                                     ; preds = %checkBb66, %445
  br i1 %453, label %456, label %460, !llfi_index !491

; <label>:456                                     ; preds = %455
  %457 = load i32* %nw, align 4, !llfi_index !492
  %458 = load i32* %nw, align 4, !llfi_index !492
  %check_cmp67 = icmp eq i32 %457, %458
  br i1 %check_cmp67, label %459, label %checkBb68

checkBb68:                                        ; preds = %456
  call void @check_flag()
  br label %459

; <label>:459                                     ; preds = %checkBb68, %456
  store i32 %457, i32* %traceback, align 4, !llfi_index !493
  br label %460, !llfi_index !494

; <label>:460                                     ; preds = %459, %455
  %461 = load i32* %traceback, align 4, !llfi_index !495
  %462 = load i32* %new_w, align 4, !llfi_index !496
  %463 = icmp eq i32 %461, %462, !llfi_index !497
  %464 = icmp eq i32 %461, %462, !llfi_index !497
  %check_cmp69 = icmp eq i1 %463, %464
  br i1 %check_cmp69, label %465, label %checkBb70

checkBb70:                                        ; preds = %460
  call void @check_flag()
  br label %465

; <label>:465                                     ; preds = %checkBb70, %460
  br i1 %463, label %466, label %468, !llfi_index !498

; <label>:466                                     ; preds = %465
  %467 = load i32* %w, align 4, !llfi_index !499
  store i32 %467, i32* %traceback, align 4, !llfi_index !500
  br label %468, !llfi_index !501

; <label>:468                                     ; preds = %466, %465
  %469 = load i32* %traceback, align 4, !llfi_index !502
  %470 = load i32* %new_n, align 4, !llfi_index !503
  %471 = icmp eq i32 %469, %470, !llfi_index !504
  %472 = icmp eq i32 %469, %470, !llfi_index !504
  %check_cmp71 = icmp eq i1 %471, %472
  br i1 %check_cmp71, label %473, label %checkBb72

checkBb72:                                        ; preds = %468
  call void @check_flag()
  br label %473

; <label>:473                                     ; preds = %checkBb72, %468
  br i1 %471, label %474, label %476, !llfi_index !505

; <label>:474                                     ; preds = %473
  %475 = load i32* %n, align 4, !llfi_index !506
  store i32 %475, i32* %traceback, align 4, !llfi_index !507
  br label %476, !llfi_index !508

; <label>:476                                     ; preds = %474, %473
  %477 = load %struct._IO_FILE** %fpo, align 8, !llfi_index !509
  %478 = load i32* %traceback, align 4, !llfi_index !510
  %479 = load i32* %traceback, align 4, !llfi_index !510
  %check_cmp73 = icmp eq i32 %478, %479
  br i1 %check_cmp73, label %480, label %checkBb74

checkBb74:                                        ; preds = %476
  call void @check_flag()
  br label %480

; <label>:480                                     ; preds = %checkBb74, %476
  %481 = call i32 (%struct._IO_FILE*, i8*, ...)* @fprintf(%struct._IO_FILE* %477, i8* getelementptr inbounds ([4 x i8]* @.str13, i32 0, i32 0), i32 %478), !llfi_index !511
  %482 = load i32* %traceback, align 4, !llfi_index !512
  %483 = load i32* %traceback, align 4, !llfi_index !512
  %484 = load i32* %nw, align 4, !llfi_index !513
  %485 = load i32* %nw, align 4, !llfi_index !513
  %486 = icmp eq i32 %482, %484, !llfi_index !514
  %487 = icmp eq i32 %483, %485, !llfi_index !514
  %check_cmp75 = icmp eq i1 %486, %487
  br i1 %check_cmp75, label %488, label %checkBb76

checkBb76:                                        ; preds = %480
  call void @check_flag()
  br label %488

; <label>:488                                     ; preds = %checkBb76, %480
  br i1 %486, label %489, label %494, !llfi_index !515

; <label>:489                                     ; preds = %488
  %490 = load i32* %i7, align 4, !llfi_index !516
  %491 = add nsw i32 %490, -1, !llfi_index !517
  store i32 %491, i32* %i7, align 4, !llfi_index !518
  %492 = load i32* %j8, align 4, !llfi_index !519
  %493 = add nsw i32 %492, -1, !llfi_index !520
  store i32 %493, i32* %j8, align 4, !llfi_index !521
  br label %298, !llfi_index !522

; <label>:494                                     ; preds = %488
  %495 = load i32* %traceback, align 4, !llfi_index !523
  %496 = load i32* %w, align 4, !llfi_index !524
  %497 = icmp eq i32 %495, %496, !llfi_index !525
  br i1 %497, label %498, label %501, !llfi_index !526

; <label>:498                                     ; preds = %494
  %499 = load i32* %j8, align 4, !llfi_index !527
  %500 = add nsw i32 %499, -1, !llfi_index !528
  store i32 %500, i32* %j8, align 4, !llfi_index !529
  br label %298, !llfi_index !530

; <label>:501                                     ; preds = %494
  %502 = load i32* %traceback, align 4, !llfi_index !531
  %503 = load i32* %n, align 4, !llfi_index !532
  %504 = icmp eq i32 %502, %503, !llfi_index !533
  br i1 %504, label %505, label %508, !llfi_index !534

; <label>:505                                     ; preds = %501
  %506 = load i32* %i7, align 4, !llfi_index !535
  %507 = add nsw i32 %506, -1, !llfi_index !536
  store i32 %507, i32* %i7, align 4, !llfi_index !537
  br label %298, !llfi_index !538

; <label>:508                                     ; preds = %501
  br label %509, !llfi_index !539

; <label>:509                                     ; preds = %508
  br label %510, !llfi_index !540

; <label>:510                                     ; preds = %509
  br label %511, !llfi_index !541

; <label>:511                                     ; preds = %510
  br label %298, !llfi_index !542

; <label>:512                                     ; preds = %345, %304
  %513 = load %struct._IO_FILE** %fpo, align 8, !llfi_index !543
  %514 = call i32 @fclose(%struct._IO_FILE* %513), !llfi_index !544
  %515 = load i32** %referrence, align 8, !llfi_index !545
  %516 = bitcast i32* %515 to i8*, !llfi_index !546
  call void @free(i8* %516) #7, !llfi_index !547
  %517 = load i32** %input_itemsets, align 8, !llfi_index !548
  %518 = bitcast i32* %517 to i8*, !llfi_index !549
  call void @free(i8* %518) #7, !llfi_index !550
  %519 = load i32** %output_itemsets, align 8, !llfi_index !551
  %520 = bitcast i32* %519 to i8*, !llfi_index !552
  call void @free(i8* %520) #7, !llfi_index !553
  ret void, !llfi_index !554
}

; Function Attrs: uwtable
define void @_Z5usageiPPc(i32 %argc, i8** %argv) #4 {
  %1 = alloca i32, align 4, !llfi_index !555
  %2 = alloca i8**, align 8, !llfi_index !556
  store i32 %argc, i32* %1, align 4, !llfi_index !557
  store i8** %argv, i8*** %2, align 8, !llfi_index !558
  %3 = load %struct._IO_FILE** @stderr, align 8, !llfi_index !559
  %4 = load i8*** %2, align 8, !llfi_index !560
  %5 = getelementptr inbounds i8** %4, i64 0, !llfi_index !561
  %6 = load i8** %5, align 8, !llfi_index !562
  %7 = call i32 (%struct._IO_FILE*, i8*, ...)* @fprintf(%struct._IO_FILE* %3, i8* getelementptr inbounds ([55 x i8]* @.str1, i32 0, i32 0), i8* %6), !llfi_index !563
  %8 = load %struct._IO_FILE** @stderr, align 8, !llfi_index !564
  %9 = call i32 (%struct._IO_FILE*, i8*, ...)* @fprintf(%struct._IO_FILE* %8, i8* getelementptr inbounds ([40 x i8]* @.str12, i32 0, i32 0)), !llfi_index !565
  %10 = load %struct._IO_FILE** @stderr, align 8, !llfi_index !566
  %11 = call i32 (%struct._IO_FILE*, i8*, ...)* @fprintf(%struct._IO_FILE* %10, i8* getelementptr inbounds ([47 x i8]* @.str2, i32 0, i32 0)), !llfi_index !567
  %12 = load %struct._IO_FILE** @stderr, align 8, !llfi_index !568
  %13 = call i32 (%struct._IO_FILE*, i8*, ...)* @fprintf(%struct._IO_FILE* %12, i8* getelementptr inbounds ([36 x i8]* @.str3, i32 0, i32 0)), !llfi_index !569
  call void @exit(i32 1) #6, !llfi_index !570
  unreachable, !llfi_index !571
                                                  ; No predecessors!
  ret void, !llfi_index !572
}

declare i32 @fprintf(%struct._IO_FILE*, i8*, ...) #1

; Function Attrs: uwtable
define void @_Z12nw_optimizedPiS_S_iii(i32* %input_itemsets, i32* %output_itemsets, i32* %referrence, i32 %max_rows, i32 %max_cols, i32 %penalty) #4 {
  %1 = alloca i32*, align 8, !llfi_index !573
  %2 = alloca i32*, align 8, !llfi_index !574
  %3 = alloca i32*, align 8, !llfi_index !575
  %4 = alloca i32, align 4, !llfi_index !576
  %5 = alloca i32, align 4, !llfi_index !577
  %6 = alloca i32, align 4, !llfi_index !578
  %blk = alloca i32, align 4, !llfi_index !579
  %b_index_x = alloca i32, align 4, !llfi_index !580
  %b_index_y = alloca i32, align 4, !llfi_index !581
  %input_itemsets_l = alloca [289 x i32], align 64, !llfi_index !582
  %reference_l = alloca [256 x i32], align 64, !llfi_index !583
  %i = alloca i32, align 4, !llfi_index !584
  %j = alloca i32, align 4, !llfi_index !585
  %i1 = alloca i32, align 4, !llfi_index !586
  %j2 = alloca i32, align 4, !llfi_index !587
  %i3 = alloca i32, align 4, !llfi_index !588
  %j4 = alloca i32, align 4, !llfi_index !589
  %i5 = alloca i32, align 4, !llfi_index !590
  %j6 = alloca i32, align 4, !llfi_index !591
  %blk7 = alloca i32, align 4, !llfi_index !592
  %b_index_x8 = alloca i32, align 4, !llfi_index !593
  %b_index_y9 = alloca i32, align 4, !llfi_index !594
  %input_itemsets_l10 = alloca [289 x i32], align 64, !llfi_index !595
  %reference_l11 = alloca [256 x i32], align 64, !llfi_index !596
  %i12 = alloca i32, align 4, !llfi_index !597
  %j13 = alloca i32, align 4, !llfi_index !598
  %i14 = alloca i32, align 4, !llfi_index !599
  %j15 = alloca i32, align 4, !llfi_index !600
  %i16 = alloca i32, align 4, !llfi_index !601
  %j17 = alloca i32, align 4, !llfi_index !602
  %i18 = alloca i32, align 4, !llfi_index !603
  %j19 = alloca i32, align 4, !llfi_index !604
  store i32* %input_itemsets, i32** %1, align 8, !llfi_index !605
  store i32* %output_itemsets, i32** %2, align 8, !llfi_index !606
  store i32* %referrence, i32** %3, align 8, !llfi_index !607
  store i32 %max_rows, i32* %4, align 4, !llfi_index !608
  store i32 %max_cols, i32* %5, align 4, !llfi_index !609
  store i32 %penalty, i32* %6, align 4, !llfi_index !610
  store i32 1, i32* %blk, align 4, !llfi_index !611
  br label %7, !llfi_index !612

; <label>:7                                       ; preds = %271, %0
  %8 = load i32* %blk, align 4, !llfi_index !613
  %9 = load i32* %blk, align 4, !llfi_index !613
  %10 = load i32* %5, align 4, !llfi_index !614
  %11 = sub nsw i32 %10, 1, !llfi_index !615
  %12 = sdiv i32 %11, 16, !llfi_index !616
  %13 = icmp sle i32 %8, %12, !llfi_index !617
  %14 = icmp sle i32 %9, %12, !llfi_index !617
  %check_cmp = icmp eq i1 %13, %14
  br i1 %check_cmp, label %15, label %checkBb

checkBb:                                          ; preds = %7
  call void @check_flag()
  br label %15

; <label>:15                                      ; preds = %checkBb, %7
  br i1 %13, label %16, label %272, !llfi_index !618

; <label>:16                                      ; preds = %15
  store i32 0, i32* %b_index_x, align 4, !llfi_index !619
  br label %17, !llfi_index !620

; <label>:17                                      ; preds = %264, %16
  %18 = load i32* %b_index_x, align 4, !llfi_index !621
  %19 = load i32* %b_index_x, align 4, !llfi_index !621
  %20 = load i32* %blk, align 4, !llfi_index !622
  %21 = load i32* %blk, align 4, !llfi_index !622
  %22 = icmp slt i32 %18, %20, !llfi_index !623
  %23 = icmp slt i32 %19, %21, !llfi_index !623
  %check_cmp1 = icmp eq i1 %22, %23
  br i1 %check_cmp1, label %24, label %checkBb2

checkBb2:                                         ; preds = %17
  call void @check_flag()
  br label %24

; <label>:24                                      ; preds = %checkBb2, %17
  br i1 %22, label %25, label %265, !llfi_index !624

; <label>:25                                      ; preds = %24
  %26 = load i32* %blk, align 4, !llfi_index !625
  %27 = sub nsw i32 %26, 1, !llfi_index !626
  %28 = load i32* %b_index_x, align 4, !llfi_index !627
  %29 = sub nsw i32 %27, %28, !llfi_index !628
  store i32 %29, i32* %b_index_y, align 4, !llfi_index !629
  store i32 0, i32* %i, align 4, !llfi_index !630
  br label %30, !llfi_index !631

; <label>:30                                      ; preds = %81, %25
  %31 = load i32* %i, align 4, !llfi_index !632
  %32 = load i32* %i, align 4, !llfi_index !632
  %33 = icmp slt i32 %31, 16, !llfi_index !633
  %34 = icmp slt i32 %32, 16, !llfi_index !633
  %check_cmp3 = icmp eq i1 %33, %34
  br i1 %check_cmp3, label %35, label %checkBb4

checkBb4:                                         ; preds = %30
  call void @check_flag()
  br label %35

; <label>:35                                      ; preds = %checkBb4, %30
  br i1 %33, label %36, label %82, !llfi_index !634

; <label>:36                                      ; preds = %35
  store i32 0, i32* %j, align 4, !llfi_index !635
  br label %37, !llfi_index !636

; <label>:37                                      ; preds = %74, %36
  %38 = load i32* %j, align 4, !llfi_index !637
  %39 = load i32* %j, align 4, !llfi_index !637
  %40 = icmp slt i32 %38, 16, !llfi_index !638
  %41 = icmp slt i32 %39, 16, !llfi_index !638
  %check_cmp5 = icmp eq i1 %40, %41
  br i1 %check_cmp5, label %42, label %checkBb6

checkBb6:                                         ; preds = %37
  call void @check_flag()
  br label %42

; <label>:42                                      ; preds = %checkBb6, %37
  br i1 %40, label %43, label %75, !llfi_index !639

; <label>:43                                      ; preds = %42
  %44 = load i32* %5, align 4, !llfi_index !640
  %45 = load i32* %b_index_y, align 4, !llfi_index !641
  %46 = mul nsw i32 %45, 16, !llfi_index !642
  %47 = load i32* %i, align 4, !llfi_index !643
  %48 = add nsw i32 %46, %47, !llfi_index !644
  %49 = add nsw i32 %48, 1, !llfi_index !645
  %50 = mul nsw i32 %44, %49, !llfi_index !646
  %51 = load i32* %b_index_x, align 4, !llfi_index !647
  %52 = mul nsw i32 %51, 16, !llfi_index !648
  %53 = add nsw i32 %50, %52, !llfi_index !649
  %54 = load i32* %j, align 4, !llfi_index !650
  %55 = add nsw i32 %53, %54, !llfi_index !651
  %56 = add nsw i32 %55, 1, !llfi_index !652
  %57 = sext i32 %56 to i64, !llfi_index !653
  %58 = load i32** %3, align 8, !llfi_index !654
  %59 = getelementptr inbounds i32* %58, i64 %57, !llfi_index !655
  %60 = load i32* %59, align 4, !llfi_index !656
  %61 = load i32* %59, align 4, !llfi_index !656
  %check_cmp7 = icmp eq i32 %60, %61
  br i1 %check_cmp7, label %62, label %checkBb8

checkBb8:                                         ; preds = %43
  call void @check_flag()
  br label %62

; <label>:62                                      ; preds = %checkBb8, %43
  %63 = load i32* %i, align 4, !llfi_index !657
  %64 = mul nsw i32 %63, 16, !llfi_index !658
  %65 = load i32* %j, align 4, !llfi_index !659
  %66 = add nsw i32 %64, %65, !llfi_index !660
  %67 = sext i32 %66 to i64, !llfi_index !661
  %68 = getelementptr inbounds [256 x i32]* %reference_l, i32 0, i64 %67, !llfi_index !662
  store i32 %60, i32* %68, align 4, !llfi_index !663
  br label %69, !llfi_index !664

; <label>:69                                      ; preds = %62
  %70 = load i32* %j, align 4, !llfi_index !665
  %71 = load i32* %j, align 4, !llfi_index !665
  %72 = add nsw i32 %70, 1, !llfi_index !666
  %73 = add nsw i32 %71, 1, !llfi_index !666
  %check_cmp9 = icmp eq i32 %72, %73
  br i1 %check_cmp9, label %74, label %checkBb10

checkBb10:                                        ; preds = %69
  call void @check_flag()
  br label %74

; <label>:74                                      ; preds = %checkBb10, %69
  store i32 %72, i32* %j, align 4, !llfi_index !667
  br label %37, !llfi_index !668

; <label>:75                                      ; preds = %42
  br label %76, !llfi_index !669

; <label>:76                                      ; preds = %75
  %77 = load i32* %i, align 4, !llfi_index !670
  %78 = load i32* %i, align 4, !llfi_index !670
  %79 = add nsw i32 %77, 1, !llfi_index !671
  %80 = add nsw i32 %78, 1, !llfi_index !671
  %check_cmp11 = icmp eq i32 %79, %80
  br i1 %check_cmp11, label %81, label %checkBb12

checkBb12:                                        ; preds = %76
  call void @check_flag()
  br label %81

; <label>:81                                      ; preds = %checkBb12, %76
  store i32 %79, i32* %i, align 4, !llfi_index !672
  br label %30, !llfi_index !673

; <label>:82                                      ; preds = %35
  store i32 0, i32* %i1, align 4, !llfi_index !674
  br label %83, !llfi_index !675

; <label>:83                                      ; preds = %127, %82
  %84 = load i32* %i1, align 4, !llfi_index !676
  %85 = load i32* %i1, align 4, !llfi_index !676
  %86 = icmp slt i32 %84, 17, !llfi_index !677
  %87 = icmp slt i32 %85, 17, !llfi_index !677
  %check_cmp13 = icmp eq i1 %86, %87
  br i1 %check_cmp13, label %88, label %checkBb14

checkBb14:                                        ; preds = %83
  call void @check_flag()
  br label %88

; <label>:88                                      ; preds = %checkBb14, %83
  br i1 %86, label %89, label %128, !llfi_index !678

; <label>:89                                      ; preds = %88
  store i32 0, i32* %j2, align 4, !llfi_index !679
  br label %90, !llfi_index !680

; <label>:90                                      ; preds = %120, %89
  %91 = load i32* %j2, align 4, !llfi_index !681
  %92 = icmp slt i32 %91, 17, !llfi_index !682
  br i1 %92, label %93, label %121, !llfi_index !683

; <label>:93                                      ; preds = %90
  %94 = load i32* %5, align 4, !llfi_index !684
  %95 = load i32* %b_index_y, align 4, !llfi_index !685
  %96 = mul nsw i32 %95, 16, !llfi_index !686
  %97 = load i32* %i1, align 4, !llfi_index !687
  %98 = add nsw i32 %96, %97, !llfi_index !688
  %99 = mul nsw i32 %94, %98, !llfi_index !689
  %100 = load i32* %b_index_x, align 4, !llfi_index !690
  %101 = mul nsw i32 %100, 16, !llfi_index !691
  %102 = add nsw i32 %99, %101, !llfi_index !692
  %103 = load i32* %j2, align 4, !llfi_index !693
  %104 = add nsw i32 %102, %103, !llfi_index !694
  %105 = sext i32 %104 to i64, !llfi_index !695
  %106 = load i32** %1, align 8, !llfi_index !696
  %107 = getelementptr inbounds i32* %106, i64 %105, !llfi_index !697
  %108 = load i32* %107, align 4, !llfi_index !698
  %109 = load i32* %i1, align 4, !llfi_index !699
  %110 = mul nsw i32 %109, 17, !llfi_index !700
  %111 = load i32* %j2, align 4, !llfi_index !701
  %112 = add nsw i32 %110, %111, !llfi_index !702
  %113 = sext i32 %112 to i64, !llfi_index !703
  %114 = getelementptr inbounds [289 x i32]* %input_itemsets_l, i32 0, i64 %113, !llfi_index !704
  store i32 %108, i32* %114, align 4, !llfi_index !705
  br label %115, !llfi_index !706

; <label>:115                                     ; preds = %93
  %116 = load i32* %j2, align 4, !llfi_index !707
  %117 = load i32* %j2, align 4, !llfi_index !707
  %118 = add nsw i32 %116, 1, !llfi_index !708
  %119 = add nsw i32 %117, 1, !llfi_index !708
  %check_cmp15 = icmp eq i32 %118, %119
  br i1 %check_cmp15, label %120, label %checkBb16

checkBb16:                                        ; preds = %115
  call void @check_flag()
  br label %120

; <label>:120                                     ; preds = %checkBb16, %115
  store i32 %118, i32* %j2, align 4, !llfi_index !709
  br label %90, !llfi_index !710

; <label>:121                                     ; preds = %90
  br label %122, !llfi_index !711

; <label>:122                                     ; preds = %121
  %123 = load i32* %i1, align 4, !llfi_index !712
  %124 = load i32* %i1, align 4, !llfi_index !712
  %125 = add nsw i32 %123, 1, !llfi_index !713
  %126 = add nsw i32 %124, 1, !llfi_index !713
  %check_cmp17 = icmp eq i32 %125, %126
  br i1 %check_cmp17, label %127, label %checkBb18

checkBb18:                                        ; preds = %122
  call void @check_flag()
  br label %127

; <label>:127                                     ; preds = %checkBb18, %122
  store i32 %125, i32* %i1, align 4, !llfi_index !714
  br label %83, !llfi_index !715

; <label>:128                                     ; preds = %88
  store i32 1, i32* %i3, align 4, !llfi_index !716
  br label %129, !llfi_index !717

; <label>:129                                     ; preds = %204, %128
  %130 = load i32* %i3, align 4, !llfi_index !718
  %131 = load i32* %i3, align 4, !llfi_index !718
  %132 = icmp slt i32 %130, 17, !llfi_index !719
  %133 = icmp slt i32 %131, 17, !llfi_index !719
  %check_cmp19 = icmp eq i1 %132, %133
  br i1 %check_cmp19, label %134, label %checkBb20

checkBb20:                                        ; preds = %129
  call void @check_flag()
  br label %134

; <label>:134                                     ; preds = %checkBb20, %129
  br i1 %132, label %135, label %205, !llfi_index !720

; <label>:135                                     ; preds = %134
  store i32 1, i32* %j4, align 4, !llfi_index !721
  br label %136, !llfi_index !722

; <label>:136                                     ; preds = %197, %135
  %137 = load i32* %j4, align 4, !llfi_index !723
  %138 = load i32* %j4, align 4, !llfi_index !723
  %139 = icmp slt i32 %137, 17, !llfi_index !724
  %140 = icmp slt i32 %138, 17, !llfi_index !724
  %check_cmp21 = icmp eq i1 %139, %140
  br i1 %check_cmp21, label %141, label %checkBb22

checkBb22:                                        ; preds = %136
  call void @check_flag()
  br label %141

; <label>:141                                     ; preds = %checkBb22, %136
  br i1 %139, label %142, label %198, !llfi_index !725

; <label>:142                                     ; preds = %141
  %143 = load i32* %i3, align 4, !llfi_index !726
  %144 = sub nsw i32 %143, 1, !llfi_index !727
  %145 = mul nsw i32 %144, 17, !llfi_index !728
  %146 = load i32* %j4, align 4, !llfi_index !729
  %147 = add nsw i32 %145, %146, !llfi_index !730
  %148 = sub nsw i32 %147, 1, !llfi_index !731
  %149 = sext i32 %148 to i64, !llfi_index !732
  %150 = getelementptr inbounds [289 x i32]* %input_itemsets_l, i32 0, i64 %149, !llfi_index !733
  %151 = load i32* %150, align 4, !llfi_index !734
  %152 = load i32* %i3, align 4, !llfi_index !735
  %153 = sub nsw i32 %152, 1, !llfi_index !736
  %154 = mul nsw i32 %153, 16, !llfi_index !737
  %155 = load i32* %j4, align 4, !llfi_index !738
  %156 = add nsw i32 %154, %155, !llfi_index !739
  %157 = sub nsw i32 %156, 1, !llfi_index !740
  %158 = sext i32 %157 to i64, !llfi_index !741
  %159 = getelementptr inbounds [256 x i32]* %reference_l, i32 0, i64 %158, !llfi_index !742
  %160 = load i32* %159, align 4, !llfi_index !743
  %161 = load i32* %159, align 4, !llfi_index !743
  %162 = add nsw i32 %151, %160, !llfi_index !744
  %163 = add nsw i32 %151, %161, !llfi_index !744
  %check_cmp23 = icmp eq i32 %162, %163
  br i1 %check_cmp23, label %164, label %checkBb24

checkBb24:                                        ; preds = %142
  call void @check_flag()
  br label %164

; <label>:164                                     ; preds = %checkBb24, %142
  %165 = load i32* %i3, align 4, !llfi_index !745
  %166 = mul nsw i32 %165, 17, !llfi_index !746
  %167 = load i32* %j4, align 4, !llfi_index !747
  %168 = add nsw i32 %166, %167, !llfi_index !748
  %169 = sub nsw i32 %168, 1, !llfi_index !749
  %170 = sext i32 %169 to i64, !llfi_index !750
  %171 = getelementptr inbounds [289 x i32]* %input_itemsets_l, i32 0, i64 %170, !llfi_index !751
  %172 = load i32* %171, align 4, !llfi_index !752
  %173 = load i32* %6, align 4, !llfi_index !753
  %174 = sub nsw i32 %172, %173, !llfi_index !754
  %175 = load i32* %i3, align 4, !llfi_index !755
  %176 = sub nsw i32 %175, 1, !llfi_index !756
  %177 = mul nsw i32 %176, 17, !llfi_index !757
  %178 = load i32* %j4, align 4, !llfi_index !758
  %179 = add nsw i32 %177, %178, !llfi_index !759
  %180 = sext i32 %179 to i64, !llfi_index !760
  %181 = getelementptr inbounds [289 x i32]* %input_itemsets_l, i32 0, i64 %180, !llfi_index !761
  %182 = load i32* %181, align 4, !llfi_index !762
  %183 = load i32* %6, align 4, !llfi_index !763
  %184 = sub nsw i32 %182, %183, !llfi_index !764
  %185 = call i32 @_Z7maximumiii(i32 %162, i32 %174, i32 %184), !llfi_index !765
  %186 = load i32* %i3, align 4, !llfi_index !766
  %187 = mul nsw i32 %186, 17, !llfi_index !767
  %188 = load i32* %j4, align 4, !llfi_index !768
  %189 = add nsw i32 %187, %188, !llfi_index !769
  %190 = sext i32 %189 to i64, !llfi_index !770
  %191 = getelementptr inbounds [289 x i32]* %input_itemsets_l, i32 0, i64 %190, !llfi_index !771
  store i32 %185, i32* %191, align 4, !llfi_index !772
  br label %192, !llfi_index !773

; <label>:192                                     ; preds = %164
  %193 = load i32* %j4, align 4, !llfi_index !774
  %194 = load i32* %j4, align 4, !llfi_index !774
  %195 = add nsw i32 %193, 1, !llfi_index !775
  %196 = add nsw i32 %194, 1, !llfi_index !775
  %check_cmp25 = icmp eq i32 %195, %196
  br i1 %check_cmp25, label %197, label %checkBb26

checkBb26:                                        ; preds = %192
  call void @check_flag()
  br label %197

; <label>:197                                     ; preds = %checkBb26, %192
  store i32 %195, i32* %j4, align 4, !llfi_index !776
  br label %136, !llfi_index !777

; <label>:198                                     ; preds = %141
  br label %199, !llfi_index !778

; <label>:199                                     ; preds = %198
  %200 = load i32* %i3, align 4, !llfi_index !779
  %201 = load i32* %i3, align 4, !llfi_index !779
  %202 = add nsw i32 %200, 1, !llfi_index !780
  %203 = add nsw i32 %201, 1, !llfi_index !780
  %check_cmp27 = icmp eq i32 %202, %203
  br i1 %check_cmp27, label %204, label %checkBb28

checkBb28:                                        ; preds = %199
  call void @check_flag()
  br label %204

; <label>:204                                     ; preds = %checkBb28, %199
  store i32 %202, i32* %i3, align 4, !llfi_index !781
  br label %129, !llfi_index !782

; <label>:205                                     ; preds = %134
  store i32 0, i32* %i5, align 4, !llfi_index !783
  br label %206, !llfi_index !784

; <label>:206                                     ; preds = %257, %205
  %207 = load i32* %i5, align 4, !llfi_index !785
  %208 = load i32* %i5, align 4, !llfi_index !785
  %209 = icmp slt i32 %207, 16, !llfi_index !786
  %210 = icmp slt i32 %208, 16, !llfi_index !786
  %check_cmp29 = icmp eq i1 %209, %210
  br i1 %check_cmp29, label %211, label %checkBb30

checkBb30:                                        ; preds = %206
  call void @check_flag()
  br label %211

; <label>:211                                     ; preds = %checkBb30, %206
  br i1 %209, label %212, label %258, !llfi_index !787

; <label>:212                                     ; preds = %211
  store i32 0, i32* %j6, align 4, !llfi_index !788
  br label %213, !llfi_index !789

; <label>:213                                     ; preds = %250, %212
  %214 = load i32* %j6, align 4, !llfi_index !790
  %215 = load i32* %j6, align 4, !llfi_index !790
  %216 = icmp slt i32 %214, 16, !llfi_index !791
  %217 = icmp slt i32 %215, 16, !llfi_index !791
  %check_cmp31 = icmp eq i1 %216, %217
  br i1 %check_cmp31, label %218, label %checkBb32

checkBb32:                                        ; preds = %213
  call void @check_flag()
  br label %218

; <label>:218                                     ; preds = %checkBb32, %213
  br i1 %216, label %219, label %251, !llfi_index !792

; <label>:219                                     ; preds = %218
  %220 = load i32* %i5, align 4, !llfi_index !793
  %221 = add nsw i32 %220, 1, !llfi_index !794
  %222 = mul nsw i32 %221, 17, !llfi_index !795
  %223 = load i32* %j6, align 4, !llfi_index !796
  %224 = add nsw i32 %222, %223, !llfi_index !797
  %225 = add nsw i32 %224, 1, !llfi_index !798
  %226 = sext i32 %225 to i64, !llfi_index !799
  %227 = getelementptr inbounds [289 x i32]* %input_itemsets_l, i32 0, i64 %226, !llfi_index !800
  %228 = load i32* %227, align 4, !llfi_index !801
  %229 = load i32* %5, align 4, !llfi_index !802
  %230 = load i32* %b_index_y, align 4, !llfi_index !803
  %231 = mul nsw i32 %230, 16, !llfi_index !804
  %232 = load i32* %i5, align 4, !llfi_index !805
  %233 = add nsw i32 %231, %232, !llfi_index !806
  %234 = add nsw i32 %233, 1, !llfi_index !807
  %235 = mul nsw i32 %229, %234, !llfi_index !808
  %236 = load i32* %b_index_x, align 4, !llfi_index !809
  %237 = mul nsw i32 %236, 16, !llfi_index !810
  %238 = add nsw i32 %235, %237, !llfi_index !811
  %239 = load i32* %j6, align 4, !llfi_index !812
  %240 = add nsw i32 %238, %239, !llfi_index !813
  %241 = add nsw i32 %240, 1, !llfi_index !814
  %242 = sext i32 %241 to i64, !llfi_index !815
  %243 = load i32** %1, align 8, !llfi_index !816
  %244 = getelementptr inbounds i32* %243, i64 %242, !llfi_index !817
  store i32 %228, i32* %244, align 4, !llfi_index !818
  br label %245, !llfi_index !819

; <label>:245                                     ; preds = %219
  %246 = load i32* %j6, align 4, !llfi_index !820
  %247 = load i32* %j6, align 4, !llfi_index !820
  %248 = add nsw i32 %246, 1, !llfi_index !821
  %249 = add nsw i32 %247, 1, !llfi_index !821
  %check_cmp33 = icmp eq i32 %248, %249
  br i1 %check_cmp33, label %250, label %checkBb34

checkBb34:                                        ; preds = %245
  call void @check_flag()
  br label %250

; <label>:250                                     ; preds = %checkBb34, %245
  store i32 %248, i32* %j6, align 4, !llfi_index !822
  br label %213, !llfi_index !823

; <label>:251                                     ; preds = %218
  br label %252, !llfi_index !824

; <label>:252                                     ; preds = %251
  %253 = load i32* %i5, align 4, !llfi_index !825
  %254 = load i32* %i5, align 4, !llfi_index !825
  %255 = add nsw i32 %253, 1, !llfi_index !826
  %256 = add nsw i32 %254, 1, !llfi_index !826
  %check_cmp35 = icmp eq i32 %255, %256
  br i1 %check_cmp35, label %257, label %checkBb36

checkBb36:                                        ; preds = %252
  call void @check_flag()
  br label %257

; <label>:257                                     ; preds = %checkBb36, %252
  store i32 %255, i32* %i5, align 4, !llfi_index !827
  br label %206, !llfi_index !828

; <label>:258                                     ; preds = %211
  br label %259, !llfi_index !829

; <label>:259                                     ; preds = %258
  %260 = load i32* %b_index_x, align 4, !llfi_index !830
  %261 = load i32* %b_index_x, align 4, !llfi_index !830
  %262 = add nsw i32 %260, 1, !llfi_index !831
  %263 = add nsw i32 %261, 1, !llfi_index !831
  %check_cmp37 = icmp eq i32 %262, %263
  br i1 %check_cmp37, label %264, label %checkBb38

checkBb38:                                        ; preds = %259
  call void @check_flag()
  br label %264

; <label>:264                                     ; preds = %checkBb38, %259
  store i32 %262, i32* %b_index_x, align 4, !llfi_index !832
  br label %17, !llfi_index !833

; <label>:265                                     ; preds = %24
  br label %266, !llfi_index !834

; <label>:266                                     ; preds = %265
  %267 = load i32* %blk, align 4, !llfi_index !835
  %268 = load i32* %blk, align 4, !llfi_index !835
  %269 = add nsw i32 %267, 1, !llfi_index !836
  %270 = add nsw i32 %268, 1, !llfi_index !836
  %check_cmp39 = icmp eq i32 %269, %270
  br i1 %check_cmp39, label %271, label %checkBb40

checkBb40:                                        ; preds = %266
  call void @check_flag()
  br label %271

; <label>:271                                     ; preds = %checkBb40, %266
  store i32 %269, i32* %blk, align 4, !llfi_index !837
  br label %7, !llfi_index !838

; <label>:272                                     ; preds = %15
  %273 = call i32 (i8*, ...)* @printf(i8* getelementptr inbounds ([32 x i8]* @.str4, i32 0, i32 0)), !llfi_index !839
  store i32 2, i32* %blk7, align 4, !llfi_index !840
  br label %274, !llfi_index !841

; <label>:274                                     ; preds = %547, %272
  %275 = load i32* %blk7, align 4, !llfi_index !842
  %276 = load i32* %blk7, align 4, !llfi_index !842
  %277 = load i32* %5, align 4, !llfi_index !843
  %278 = sub nsw i32 %277, 1, !llfi_index !844
  %279 = sdiv i32 %278, 16, !llfi_index !845
  %280 = icmp sle i32 %275, %279, !llfi_index !846
  %281 = icmp sle i32 %276, %279, !llfi_index !846
  %check_cmp41 = icmp eq i1 %280, %281
  br i1 %check_cmp41, label %282, label %checkBb42

checkBb42:                                        ; preds = %274
  call void @check_flag()
  br label %282

; <label>:282                                     ; preds = %checkBb42, %274
  br i1 %280, label %283, label %548, !llfi_index !847

; <label>:283                                     ; preds = %282
  %284 = load i32* %blk7, align 4, !llfi_index !848
  %285 = load i32* %blk7, align 4, !llfi_index !848
  %286 = sub nsw i32 %284, 1, !llfi_index !849
  %287 = sub nsw i32 %285, 1, !llfi_index !849
  %check_cmp43 = icmp eq i32 %286, %287
  br i1 %check_cmp43, label %288, label %checkBb44

checkBb44:                                        ; preds = %283
  call void @check_flag()
  br label %288

; <label>:288                                     ; preds = %checkBb44, %283
  store i32 %286, i32* %b_index_x8, align 4, !llfi_index !850
  br label %289, !llfi_index !851

; <label>:289                                     ; preds = %538, %288
  %290 = load i32* %b_index_x8, align 4, !llfi_index !852
  %291 = load i32* %b_index_x8, align 4, !llfi_index !852
  %292 = load i32* %5, align 4, !llfi_index !853
  %293 = load i32* %5, align 4, !llfi_index !853
  %294 = sub nsw i32 %292, 1, !llfi_index !854
  %295 = sub nsw i32 %293, 1, !llfi_index !854
  %296 = sdiv i32 %294, 16, !llfi_index !855
  %297 = sdiv i32 %295, 16, !llfi_index !855
  %298 = icmp slt i32 %290, %296, !llfi_index !856
  %299 = icmp slt i32 %291, %297, !llfi_index !856
  %check_cmp45 = icmp eq i1 %298, %299
  br i1 %check_cmp45, label %300, label %checkBb46

checkBb46:                                        ; preds = %289
  call void @check_flag()
  br label %300

; <label>:300                                     ; preds = %checkBb46, %289
  br i1 %298, label %301, label %541, !llfi_index !857

; <label>:301                                     ; preds = %300
  %302 = load i32* %5, align 4, !llfi_index !858
  %303 = sub nsw i32 %302, 1, !llfi_index !859
  %304 = sdiv i32 %303, 16, !llfi_index !860
  %305 = load i32* %blk7, align 4, !llfi_index !861
  %306 = add nsw i32 %304, %305, !llfi_index !862
  %307 = sub nsw i32 %306, 2, !llfi_index !863
  %308 = load i32* %b_index_x8, align 4, !llfi_index !864
  %309 = sub nsw i32 %307, %308, !llfi_index !865
  store i32 %309, i32* %b_index_y9, align 4, !llfi_index !866
  store i32 0, i32* %i12, align 4, !llfi_index !867
  br label %310, !llfi_index !868

; <label>:310                                     ; preds = %360, %301
  %311 = load i32* %i12, align 4, !llfi_index !869
  %312 = load i32* %i12, align 4, !llfi_index !869
  %313 = icmp slt i32 %311, 16, !llfi_index !870
  %314 = icmp slt i32 %312, 16, !llfi_index !870
  %check_cmp47 = icmp eq i1 %313, %314
  br i1 %check_cmp47, label %315, label %checkBb48

checkBb48:                                        ; preds = %310
  call void @check_flag()
  br label %315

; <label>:315                                     ; preds = %checkBb48, %310
  br i1 %313, label %316, label %361, !llfi_index !871

; <label>:316                                     ; preds = %315
  store i32 0, i32* %j13, align 4, !llfi_index !872
  br label %317, !llfi_index !873

; <label>:317                                     ; preds = %352, %316
  %318 = load i32* %j13, align 4, !llfi_index !874
  %319 = load i32* %j13, align 4, !llfi_index !874
  %320 = icmp slt i32 %318, 16, !llfi_index !875
  %321 = icmp slt i32 %319, 16, !llfi_index !875
  %check_cmp49 = icmp eq i1 %320, %321
  br i1 %check_cmp49, label %322, label %checkBb50

checkBb50:                                        ; preds = %317
  call void @check_flag()
  br label %322

; <label>:322                                     ; preds = %checkBb50, %317
  br i1 %320, label %323, label %354, !llfi_index !876

; <label>:323                                     ; preds = %322
  %324 = load i32* %5, align 4, !llfi_index !877
  %325 = load i32* %b_index_y9, align 4, !llfi_index !878
  %326 = mul nsw i32 %325, 16, !llfi_index !879
  %327 = load i32* %i12, align 4, !llfi_index !880
  %328 = add nsw i32 %326, %327, !llfi_index !881
  %329 = add nsw i32 %328, 1, !llfi_index !882
  %330 = mul nsw i32 %324, %329, !llfi_index !883
  %331 = load i32* %b_index_x8, align 4, !llfi_index !884
  %332 = mul nsw i32 %331, 16, !llfi_index !885
  %333 = add nsw i32 %330, %332, !llfi_index !886
  %334 = load i32* %j13, align 4, !llfi_index !887
  %335 = add nsw i32 %333, %334, !llfi_index !888
  %336 = add nsw i32 %335, 1, !llfi_index !889
  %337 = sext i32 %336 to i64, !llfi_index !890
  %338 = load i32** %3, align 8, !llfi_index !891
  %339 = getelementptr inbounds i32* %338, i64 %337, !llfi_index !892
  %340 = load i32* %339, align 4, !llfi_index !893
  %341 = load i32* %339, align 4, !llfi_index !893
  %check_cmp51 = icmp eq i32 %340, %341
  br i1 %check_cmp51, label %342, label %checkBb52

checkBb52:                                        ; preds = %323
  call void @check_flag()
  br label %342

; <label>:342                                     ; preds = %checkBb52, %323
  %343 = load i32* %i12, align 4, !llfi_index !894
  %344 = mul nsw i32 %343, 16, !llfi_index !895
  %345 = load i32* %j13, align 4, !llfi_index !896
  %346 = add nsw i32 %344, %345, !llfi_index !897
  %347 = sext i32 %346 to i64, !llfi_index !898
  %348 = getelementptr inbounds [256 x i32]* %reference_l11, i32 0, i64 %347, !llfi_index !899
  store i32 %340, i32* %348, align 4, !llfi_index !900
  br label %349, !llfi_index !901

; <label>:349                                     ; preds = %342
  %350 = load i32* %j13, align 4, !llfi_index !902
  %351 = load i32* %j13, align 4, !llfi_index !902
  %check_cmp53 = icmp eq i32 %350, %351
  br i1 %check_cmp53, label %352, label %checkBb54

checkBb54:                                        ; preds = %349
  call void @check_flag()
  br label %352

; <label>:352                                     ; preds = %checkBb54, %349
  %353 = add nsw i32 %350, 1, !llfi_index !903
  store i32 %353, i32* %j13, align 4, !llfi_index !904
  br label %317, !llfi_index !905

; <label>:354                                     ; preds = %322
  br label %355, !llfi_index !906

; <label>:355                                     ; preds = %354
  %356 = load i32* %i12, align 4, !llfi_index !907
  %357 = load i32* %i12, align 4, !llfi_index !907
  %358 = add nsw i32 %356, 1, !llfi_index !908
  %359 = add nsw i32 %357, 1, !llfi_index !908
  %check_cmp55 = icmp eq i32 %358, %359
  br i1 %check_cmp55, label %360, label %checkBb56

checkBb56:                                        ; preds = %355
  call void @check_flag()
  br label %360

; <label>:360                                     ; preds = %checkBb56, %355
  store i32 %358, i32* %i12, align 4, !llfi_index !909
  br label %310, !llfi_index !910

; <label>:361                                     ; preds = %315
  store i32 0, i32* %i14, align 4, !llfi_index !911
  br label %362, !llfi_index !912

; <label>:362                                     ; preds = %408, %361
  %363 = load i32* %i14, align 4, !llfi_index !913
  %364 = load i32* %i14, align 4, !llfi_index !913
  %365 = icmp slt i32 %363, 17, !llfi_index !914
  %366 = icmp slt i32 %364, 17, !llfi_index !914
  %check_cmp57 = icmp eq i1 %365, %366
  br i1 %check_cmp57, label %367, label %checkBb58

checkBb58:                                        ; preds = %362
  call void @check_flag()
  br label %367

; <label>:367                                     ; preds = %checkBb58, %362
  br i1 %365, label %368, label %409, !llfi_index !915

; <label>:368                                     ; preds = %367
  store i32 0, i32* %j15, align 4, !llfi_index !916
  br label %369, !llfi_index !917

; <label>:369                                     ; preds = %399, %368
  %370 = load i32* %j15, align 4, !llfi_index !918
  %371 = load i32* %j15, align 4, !llfi_index !918
  %372 = icmp slt i32 %370, 17, !llfi_index !919
  %373 = icmp slt i32 %371, 17, !llfi_index !919
  %check_cmp59 = icmp eq i1 %372, %373
  br i1 %check_cmp59, label %374, label %checkBb60

checkBb60:                                        ; preds = %369
  call void @check_flag()
  br label %374

; <label>:374                                     ; preds = %checkBb60, %369
  br i1 %372, label %375, label %402, !llfi_index !920

; <label>:375                                     ; preds = %374
  %376 = load i32* %5, align 4, !llfi_index !921
  %377 = load i32* %b_index_y9, align 4, !llfi_index !922
  %378 = mul nsw i32 %377, 16, !llfi_index !923
  %379 = load i32* %i14, align 4, !llfi_index !924
  %380 = add nsw i32 %378, %379, !llfi_index !925
  %381 = mul nsw i32 %376, %380, !llfi_index !926
  %382 = load i32* %b_index_x8, align 4, !llfi_index !927
  %383 = mul nsw i32 %382, 16, !llfi_index !928
  %384 = add nsw i32 %381, %383, !llfi_index !929
  %385 = load i32* %j15, align 4, !llfi_index !930
  %386 = add nsw i32 %384, %385, !llfi_index !931
  %387 = sext i32 %386 to i64, !llfi_index !932
  %388 = load i32** %1, align 8, !llfi_index !933
  %389 = getelementptr inbounds i32* %388, i64 %387, !llfi_index !934
  %390 = load i32* %389, align 4, !llfi_index !935
  %391 = load i32* %389, align 4, !llfi_index !935
  %check_cmp61 = icmp eq i32 %390, %391
  br i1 %check_cmp61, label %392, label %checkBb62

checkBb62:                                        ; preds = %375
  call void @check_flag()
  br label %392

; <label>:392                                     ; preds = %checkBb62, %375
  %393 = load i32* %i14, align 4, !llfi_index !936
  %394 = mul nsw i32 %393, 17, !llfi_index !937
  %395 = load i32* %j15, align 4, !llfi_index !938
  %396 = add nsw i32 %394, %395, !llfi_index !939
  %397 = sext i32 %396 to i64, !llfi_index !940
  %398 = getelementptr inbounds [289 x i32]* %input_itemsets_l10, i32 0, i64 %397, !llfi_index !941
  store i32 %390, i32* %398, align 4, !llfi_index !942
  br label %399, !llfi_index !943

; <label>:399                                     ; preds = %392
  %400 = load i32* %j15, align 4, !llfi_index !944
  %401 = add nsw i32 %400, 1, !llfi_index !945
  store i32 %401, i32* %j15, align 4, !llfi_index !946
  br label %369, !llfi_index !947

; <label>:402                                     ; preds = %374
  br label %403, !llfi_index !948

; <label>:403                                     ; preds = %402
  %404 = load i32* %i14, align 4, !llfi_index !949
  %405 = load i32* %i14, align 4, !llfi_index !949
  %406 = add nsw i32 %404, 1, !llfi_index !950
  %407 = add nsw i32 %405, 1, !llfi_index !950
  %check_cmp63 = icmp eq i32 %406, %407
  br i1 %check_cmp63, label %408, label %checkBb64

checkBb64:                                        ; preds = %403
  call void @check_flag()
  br label %408

; <label>:408                                     ; preds = %checkBb64, %403
  store i32 %406, i32* %i14, align 4, !llfi_index !951
  br label %362, !llfi_index !952

; <label>:409                                     ; preds = %367
  store i32 1, i32* %i16, align 4, !llfi_index !953
  br label %410, !llfi_index !954

; <label>:410                                     ; preds = %483, %409
  %411 = load i32* %i16, align 4, !llfi_index !955
  %412 = load i32* %i16, align 4, !llfi_index !955
  %413 = icmp slt i32 %411, 17, !llfi_index !956
  %414 = icmp slt i32 %412, 17, !llfi_index !956
  %check_cmp65 = icmp eq i1 %413, %414
  br i1 %check_cmp65, label %415, label %checkBb66

checkBb66:                                        ; preds = %410
  call void @check_flag()
  br label %415

; <label>:415                                     ; preds = %checkBb66, %410
  br i1 %413, label %416, label %484, !llfi_index !957

; <label>:416                                     ; preds = %415
  store i32 1, i32* %j17, align 4, !llfi_index !958
  br label %417, !llfi_index !959

; <label>:417                                     ; preds = %476, %416
  %418 = load i32* %j17, align 4, !llfi_index !960
  %419 = load i32* %j17, align 4, !llfi_index !960
  %check_cmp67 = icmp eq i32 %418, %419
  br i1 %check_cmp67, label %420, label %checkBb68

checkBb68:                                        ; preds = %417
  call void @check_flag()
  br label %420

; <label>:420                                     ; preds = %checkBb68, %417
  %421 = icmp slt i32 %418, 17, !llfi_index !961
  br i1 %421, label %422, label %477, !llfi_index !962

; <label>:422                                     ; preds = %420
  %423 = load i32* %i16, align 4, !llfi_index !963
  %424 = sub nsw i32 %423, 1, !llfi_index !964
  %425 = mul nsw i32 %424, 17, !llfi_index !965
  %426 = load i32* %j17, align 4, !llfi_index !966
  %427 = add nsw i32 %425, %426, !llfi_index !967
  %428 = sub nsw i32 %427, 1, !llfi_index !968
  %429 = sext i32 %428 to i64, !llfi_index !969
  %430 = getelementptr inbounds [289 x i32]* %input_itemsets_l10, i32 0, i64 %429, !llfi_index !970
  %431 = load i32* %430, align 4, !llfi_index !971
  %432 = load i32* %i16, align 4, !llfi_index !972
  %433 = sub nsw i32 %432, 1, !llfi_index !973
  %434 = mul nsw i32 %433, 16, !llfi_index !974
  %435 = load i32* %j17, align 4, !llfi_index !975
  %436 = add nsw i32 %434, %435, !llfi_index !976
  %437 = sub nsw i32 %436, 1, !llfi_index !977
  %438 = sext i32 %437 to i64, !llfi_index !978
  %439 = getelementptr inbounds [256 x i32]* %reference_l11, i32 0, i64 %438, !llfi_index !979
  %440 = load i32* %439, align 4, !llfi_index !980
  %441 = load i32* %439, align 4, !llfi_index !980
  %check_cmp69 = icmp eq i32 %440, %441
  br i1 %check_cmp69, label %442, label %checkBb70

checkBb70:                                        ; preds = %422
  call void @check_flag()
  br label %442

; <label>:442                                     ; preds = %checkBb70, %422
  %443 = add nsw i32 %431, %440, !llfi_index !981
  %444 = load i32* %i16, align 4, !llfi_index !982
  %445 = mul nsw i32 %444, 17, !llfi_index !983
  %446 = load i32* %j17, align 4, !llfi_index !984
  %447 = add nsw i32 %445, %446, !llfi_index !985
  %448 = sub nsw i32 %447, 1, !llfi_index !986
  %449 = sext i32 %448 to i64, !llfi_index !987
  %450 = getelementptr inbounds [289 x i32]* %input_itemsets_l10, i32 0, i64 %449, !llfi_index !988
  %451 = load i32* %450, align 4, !llfi_index !989
  %452 = load i32* %6, align 4, !llfi_index !990
  %453 = sub nsw i32 %451, %452, !llfi_index !991
  %454 = load i32* %i16, align 4, !llfi_index !992
  %455 = sub nsw i32 %454, 1, !llfi_index !993
  %456 = mul nsw i32 %455, 17, !llfi_index !994
  %457 = load i32* %j17, align 4, !llfi_index !995
  %458 = add nsw i32 %456, %457, !llfi_index !996
  %459 = sext i32 %458 to i64, !llfi_index !997
  %460 = getelementptr inbounds [289 x i32]* %input_itemsets_l10, i32 0, i64 %459, !llfi_index !998
  %461 = load i32* %460, align 4, !llfi_index !999
  %462 = load i32* %6, align 4, !llfi_index !1000
  %463 = sub nsw i32 %461, %462, !llfi_index !1001
  %464 = call i32 @_Z7maximumiii(i32 %443, i32 %453, i32 %463), !llfi_index !1002
  %465 = load i32* %i16, align 4, !llfi_index !1003
  %466 = mul nsw i32 %465, 17, !llfi_index !1004
  %467 = load i32* %j17, align 4, !llfi_index !1005
  %468 = add nsw i32 %466, %467, !llfi_index !1006
  %469 = sext i32 %468 to i64, !llfi_index !1007
  %470 = getelementptr inbounds [289 x i32]* %input_itemsets_l10, i32 0, i64 %469, !llfi_index !1008
  store i32 %464, i32* %470, align 4, !llfi_index !1009
  br label %471, !llfi_index !1010

; <label>:471                                     ; preds = %442
  %472 = load i32* %j17, align 4, !llfi_index !1011
  %473 = load i32* %j17, align 4, !llfi_index !1011
  %474 = add nsw i32 %472, 1, !llfi_index !1012
  %475 = add nsw i32 %473, 1, !llfi_index !1012
  %check_cmp71 = icmp eq i32 %474, %475
  br i1 %check_cmp71, label %476, label %checkBb72

checkBb72:                                        ; preds = %471
  call void @check_flag()
  br label %476

; <label>:476                                     ; preds = %checkBb72, %471
  store i32 %474, i32* %j17, align 4, !llfi_index !1013
  br label %417, !llfi_index !1014

; <label>:477                                     ; preds = %420
  br label %478, !llfi_index !1015

; <label>:478                                     ; preds = %477
  %479 = load i32* %i16, align 4, !llfi_index !1016
  %480 = load i32* %i16, align 4, !llfi_index !1016
  %481 = add nsw i32 %479, 1, !llfi_index !1017
  %482 = add nsw i32 %480, 1, !llfi_index !1017
  %check_cmp73 = icmp eq i32 %481, %482
  br i1 %check_cmp73, label %483, label %checkBb74

checkBb74:                                        ; preds = %478
  call void @check_flag()
  br label %483

; <label>:483                                     ; preds = %checkBb74, %478
  store i32 %481, i32* %i16, align 4, !llfi_index !1018
  br label %410, !llfi_index !1019

; <label>:484                                     ; preds = %415
  store i32 0, i32* %i18, align 4, !llfi_index !1020
  br label %485, !llfi_index !1021

; <label>:485                                     ; preds = %536, %484
  %486 = load i32* %i18, align 4, !llfi_index !1022
  %487 = load i32* %i18, align 4, !llfi_index !1022
  %488 = icmp slt i32 %486, 16, !llfi_index !1023
  %489 = icmp slt i32 %487, 16, !llfi_index !1023
  %check_cmp75 = icmp eq i1 %488, %489
  br i1 %check_cmp75, label %490, label %checkBb76

checkBb76:                                        ; preds = %485
  call void @check_flag()
  br label %490

; <label>:490                                     ; preds = %checkBb76, %485
  br i1 %488, label %491, label %537, !llfi_index !1024

; <label>:491                                     ; preds = %490
  store i32 0, i32* %j19, align 4, !llfi_index !1025
  br label %492, !llfi_index !1026

; <label>:492                                     ; preds = %529, %491
  %493 = load i32* %j19, align 4, !llfi_index !1027
  %494 = load i32* %j19, align 4, !llfi_index !1027
  %495 = icmp slt i32 %493, 16, !llfi_index !1028
  %496 = icmp slt i32 %494, 16, !llfi_index !1028
  %check_cmp77 = icmp eq i1 %495, %496
  br i1 %check_cmp77, label %497, label %checkBb78

checkBb78:                                        ; preds = %492
  call void @check_flag()
  br label %497

; <label>:497                                     ; preds = %checkBb78, %492
  br i1 %495, label %498, label %530, !llfi_index !1029

; <label>:498                                     ; preds = %497
  %499 = load i32* %i18, align 4, !llfi_index !1030
  %500 = add nsw i32 %499, 1, !llfi_index !1031
  %501 = mul nsw i32 %500, 17, !llfi_index !1032
  %502 = load i32* %j19, align 4, !llfi_index !1033
  %503 = add nsw i32 %501, %502, !llfi_index !1034
  %504 = add nsw i32 %503, 1, !llfi_index !1035
  %505 = sext i32 %504 to i64, !llfi_index !1036
  %506 = getelementptr inbounds [289 x i32]* %input_itemsets_l10, i32 0, i64 %505, !llfi_index !1037
  %507 = load i32* %506, align 4, !llfi_index !1038
  %508 = load i32* %5, align 4, !llfi_index !1039
  %509 = load i32* %b_index_y9, align 4, !llfi_index !1040
  %510 = mul nsw i32 %509, 16, !llfi_index !1041
  %511 = load i32* %i18, align 4, !llfi_index !1042
  %512 = add nsw i32 %510, %511, !llfi_index !1043
  %513 = add nsw i32 %512, 1, !llfi_index !1044
  %514 = mul nsw i32 %508, %513, !llfi_index !1045
  %515 = load i32* %b_index_x8, align 4, !llfi_index !1046
  %516 = mul nsw i32 %515, 16, !llfi_index !1047
  %517 = add nsw i32 %514, %516, !llfi_index !1048
  %518 = load i32* %j19, align 4, !llfi_index !1049
  %519 = add nsw i32 %517, %518, !llfi_index !1050
  %520 = add nsw i32 %519, 1, !llfi_index !1051
  %521 = sext i32 %520 to i64, !llfi_index !1052
  %522 = load i32** %1, align 8, !llfi_index !1053
  %523 = getelementptr inbounds i32* %522, i64 %521, !llfi_index !1054
  store i32 %507, i32* %523, align 4, !llfi_index !1055
  br label %524, !llfi_index !1056

; <label>:524                                     ; preds = %498
  %525 = load i32* %j19, align 4, !llfi_index !1057
  %526 = load i32* %j19, align 4, !llfi_index !1057
  %527 = add nsw i32 %525, 1, !llfi_index !1058
  %528 = add nsw i32 %526, 1, !llfi_index !1058
  %check_cmp79 = icmp eq i32 %527, %528
  br i1 %check_cmp79, label %529, label %checkBb80

checkBb80:                                        ; preds = %524
  call void @check_flag()
  br label %529

; <label>:529                                     ; preds = %checkBb80, %524
  store i32 %527, i32* %j19, align 4, !llfi_index !1059
  br label %492, !llfi_index !1060

; <label>:530                                     ; preds = %497
  br label %531, !llfi_index !1061

; <label>:531                                     ; preds = %530
  %532 = load i32* %i18, align 4, !llfi_index !1062
  %533 = load i32* %i18, align 4, !llfi_index !1062
  %534 = add nsw i32 %532, 1, !llfi_index !1063
  %535 = add nsw i32 %533, 1, !llfi_index !1063
  %check_cmp81 = icmp eq i32 %534, %535
  br i1 %check_cmp81, label %536, label %checkBb82

checkBb82:                                        ; preds = %531
  call void @check_flag()
  br label %536

; <label>:536                                     ; preds = %checkBb82, %531
  store i32 %534, i32* %i18, align 4, !llfi_index !1064
  br label %485, !llfi_index !1065

; <label>:537                                     ; preds = %490
  br label %538, !llfi_index !1066

; <label>:538                                     ; preds = %537
  %539 = load i32* %b_index_x8, align 4, !llfi_index !1067
  %540 = add nsw i32 %539, 1, !llfi_index !1068
  store i32 %540, i32* %b_index_x8, align 4, !llfi_index !1069
  br label %289, !llfi_index !1070

; <label>:541                                     ; preds = %300
  br label %542, !llfi_index !1071

; <label>:542                                     ; preds = %541
  %543 = load i32* %blk7, align 4, !llfi_index !1072
  %544 = load i32* %blk7, align 4, !llfi_index !1072
  %545 = add nsw i32 %543, 1, !llfi_index !1073
  %546 = add nsw i32 %544, 1, !llfi_index !1073
  %check_cmp83 = icmp eq i32 %545, %546
  br i1 %check_cmp83, label %547, label %checkBb84

checkBb84:                                        ; preds = %542
  call void @check_flag()
  br label %547

; <label>:547                                     ; preds = %checkBb84, %542
  store i32 %545, i32* %blk7, align 4, !llfi_index !1074
  br label %274, !llfi_index !1075

; <label>:548                                     ; preds = %282
  ret void, !llfi_index !1076
}

; Function Attrs: nounwind readonly
declare i32 @atoi(i8*) #5

; Function Attrs: nounwind
declare noalias i8* @malloc(i64) #3

; Function Attrs: nounwind
declare void @srand(i32) #3

; Function Attrs: nounwind
declare i32 @rand() #3

declare %struct._IO_FILE* @fopen(i8*, i8*) #1

declare i32 @fclose(%struct._IO_FILE*) #1

; Function Attrs: nounwind
declare void @free(i8*) #3

declare void @dumpIndex(i64)

attributes #0 = { nounwind uwtable "less-precise-fpmad"="false" "no-frame-pointer-elim"="true" "no-frame-pointer-elim-non-leaf" "no-infs-fp-math"="false" "no-nans-fp-math"="false" "stack-protector-buffer-size"="8" "unsafe-fp-math"="false" "use-soft-float"="false" }
attributes #1 = { "less-precise-fpmad"="false" "no-frame-pointer-elim"="true" "no-frame-pointer-elim-non-leaf" "no-infs-fp-math"="false" "no-nans-fp-math"="false" "stack-protector-buffer-size"="8" "unsafe-fp-math"="false" "use-soft-float"="false" }
attributes #2 = { noreturn nounwind "less-precise-fpmad"="false" "no-frame-pointer-elim"="true" "no-frame-pointer-elim-non-leaf" "no-infs-fp-math"="false" "no-nans-fp-math"="false" "stack-protector-buffer-size"="8" "unsafe-fp-math"="false" "use-soft-float"="false" }
attributes #3 = { nounwind "less-precise-fpmad"="false" "no-frame-pointer-elim"="true" "no-frame-pointer-elim-non-leaf" "no-infs-fp-math"="false" "no-nans-fp-math"="false" "stack-protector-buffer-size"="8" "unsafe-fp-math"="false" "use-soft-float"="false" }
attributes #4 = { uwtable "less-precise-fpmad"="false" "no-frame-pointer-elim"="true" "no-frame-pointer-elim-non-leaf" "no-infs-fp-math"="false" "no-nans-fp-math"="false" "stack-protector-buffer-size"="8" "unsafe-fp-math"="false" "use-soft-float"="false" }
attributes #5 = { nounwind readonly "less-precise-fpmad"="false" "no-frame-pointer-elim"="true" "no-frame-pointer-elim-non-leaf" "no-infs-fp-math"="false" "no-nans-fp-math"="false" "stack-protector-buffer-size"="8" "unsafe-fp-math"="false" "use-soft-float"="false" }
attributes #6 = { noreturn nounwind }
attributes #7 = { nounwind }
attributes #8 = { nounwind readonly }

!llvm.ident = !{!0, !0}

!0 = metadata !{metadata !"clang version 3.4 (tags/RELEASE_34/final)"}
!1 = metadata !{i64 1}
!2 = metadata !{i64 2}
!3 = metadata !{i64 3}
!4 = metadata !{i64 4}
!5 = metadata !{i64 5}
!6 = metadata !{i64 6}
!7 = metadata !{i64 7}
!8 = metadata !{i64 8}
!9 = metadata !{i64 9}
!10 = metadata !{i64 10}
!11 = metadata !{i64 11}
!12 = metadata !{i64 12}
!13 = metadata !{i64 13}
!14 = metadata !{i64 14}
!15 = metadata !{i64 15}
!16 = metadata !{i64 16}
!17 = metadata !{i64 17}
!18 = metadata !{i64 18}
!19 = metadata !{i64 19}
!20 = metadata !{i64 20}
!21 = metadata !{i64 21}
!22 = metadata !{i64 22}
!23 = metadata !{i64 23}
!24 = metadata !{i64 24}
!25 = metadata !{i64 25}
!26 = metadata !{i64 26}
!27 = metadata !{i64 27}
!28 = metadata !{i64 28}
!29 = metadata !{i64 29}
!30 = metadata !{i64 30}
!31 = metadata !{i64 31}
!32 = metadata !{i64 32}
!33 = metadata !{i64 33}
!34 = metadata !{i64 34}
!35 = metadata !{i64 35}
!36 = metadata !{i64 36}
!37 = metadata !{i64 37}
!38 = metadata !{i64 38}
!39 = metadata !{i64 39}
!40 = metadata !{i64 40}
!41 = metadata !{i64 41}
!42 = metadata !{i64 42}
!43 = metadata !{i64 43}
!44 = metadata !{i64 44}
!45 = metadata !{i64 45}
!46 = metadata !{i64 46}
!47 = metadata !{i64 47}
!48 = metadata !{i64 48}
!49 = metadata !{i64 49}
!50 = metadata !{i64 50}
!51 = metadata !{i64 51}
!52 = metadata !{i64 52}
!53 = metadata !{i64 53}
!54 = metadata !{i64 54}
!55 = metadata !{i64 55}
!56 = metadata !{i64 56}
!57 = metadata !{i64 57}
!58 = metadata !{i64 58}
!59 = metadata !{i64 59}
!60 = metadata !{i64 60}
!61 = metadata !{i64 61}
!62 = metadata !{i64 62}
!63 = metadata !{i64 63}
!64 = metadata !{i64 64}
!65 = metadata !{i64 65}
!66 = metadata !{i64 66}
!67 = metadata !{i64 67}
!68 = metadata !{i64 68}
!69 = metadata !{i64 69}
!70 = metadata !{i64 70}
!71 = metadata !{i64 71}
!72 = metadata !{i64 72}
!73 = metadata !{i64 73}
!74 = metadata !{i64 74}
!75 = metadata !{i64 75}
!76 = metadata !{i64 76}
!77 = metadata !{i64 77}
!78 = metadata !{i64 78}
!79 = metadata !{i64 79}
!80 = metadata !{i64 80}
!81 = metadata !{i64 81}
!82 = metadata !{i64 82}
!83 = metadata !{i64 83}
!84 = metadata !{i64 84}
!85 = metadata !{i64 85}
!86 = metadata !{i64 86}
!87 = metadata !{i64 87}
!88 = metadata !{i64 88}
!89 = metadata !{i64 89}
!90 = metadata !{i64 90}
!91 = metadata !{i64 91}
!92 = metadata !{i64 92}
!93 = metadata !{i64 93}
!94 = metadata !{i64 94}
!95 = metadata !{i64 95}
!96 = metadata !{i64 96}
!97 = metadata !{i64 97}
!98 = metadata !{i64 98}
!99 = metadata !{i64 99}
!100 = metadata !{i64 100}
!101 = metadata !{i64 101}
!102 = metadata !{i64 102}
!103 = metadata !{i64 103}
!104 = metadata !{i64 104}
!105 = metadata !{i64 105}
!106 = metadata !{i64 106}
!107 = metadata !{i64 107}
!108 = metadata !{i64 108}
!109 = metadata !{i64 109}
!110 = metadata !{i64 110}
!111 = metadata !{i64 111}
!112 = metadata !{i64 112}
!113 = metadata !{i64 113}
!114 = metadata !{i64 114}
!115 = metadata !{i64 115}
!116 = metadata !{i64 116}
!117 = metadata !{i64 117}
!118 = metadata !{i64 118}
!119 = metadata !{i64 119}
!120 = metadata !{i64 120}
!121 = metadata !{i64 121}
!122 = metadata !{i64 122}
!123 = metadata !{i64 123}
!124 = metadata !{i64 124}
!125 = metadata !{i64 125}
!126 = metadata !{i64 126}
!127 = metadata !{i64 127}
!128 = metadata !{i64 128}
!129 = metadata !{i64 129}
!130 = metadata !{i64 130}
!131 = metadata !{i64 131}
!132 = metadata !{i64 132}
!133 = metadata !{i64 133}
!134 = metadata !{i64 134}
!135 = metadata !{i64 135}
!136 = metadata !{i64 136}
!137 = metadata !{i64 137}
!138 = metadata !{i64 138}
!139 = metadata !{i64 139}
!140 = metadata !{i64 140}
!141 = metadata !{i64 141}
!142 = metadata !{i64 142}
!143 = metadata !{i64 143}
!144 = metadata !{i64 144}
!145 = metadata !{i64 145}
!146 = metadata !{i64 146}
!147 = metadata !{i64 147}
!148 = metadata !{i64 148}
!149 = metadata !{i64 149}
!150 = metadata !{i64 150}
!151 = metadata !{i64 151}
!152 = metadata !{i64 152}
!153 = metadata !{i64 153}
!154 = metadata !{i64 154}
!155 = metadata !{i64 155}
!156 = metadata !{i64 156}
!157 = metadata !{i64 157}
!158 = metadata !{i64 158}
!159 = metadata !{i64 159}
!160 = metadata !{i64 160}
!161 = metadata !{i64 161}
!162 = metadata !{i64 162}
!163 = metadata !{i64 163}
!164 = metadata !{i64 164}
!165 = metadata !{i64 165}
!166 = metadata !{i64 166}
!167 = metadata !{i64 167}
!168 = metadata !{i64 168}
!169 = metadata !{i64 169}
!170 = metadata !{i64 170}
!171 = metadata !{i64 171}
!172 = metadata !{i64 172}
!173 = metadata !{i64 173}
!174 = metadata !{i64 174}
!175 = metadata !{i64 175}
!176 = metadata !{i64 176}
!177 = metadata !{i64 177}
!178 = metadata !{i64 178}
!179 = metadata !{i64 179}
!180 = metadata !{i64 180}
!181 = metadata !{i64 181}
!182 = metadata !{i64 182}
!183 = metadata !{i64 183}
!184 = metadata !{i64 184}
!185 = metadata !{i64 185}
!186 = metadata !{i64 186}
!187 = metadata !{i64 187}
!188 = metadata !{i64 188}
!189 = metadata !{i64 189}
!190 = metadata !{i64 190}
!191 = metadata !{i64 191}
!192 = metadata !{i64 192}
!193 = metadata !{i64 193}
!194 = metadata !{i64 194}
!195 = metadata !{i64 195}
!196 = metadata !{i64 196}
!197 = metadata !{i64 197}
!198 = metadata !{i64 198}
!199 = metadata !{i64 199}
!200 = metadata !{i64 200}
!201 = metadata !{i64 201}
!202 = metadata !{i64 202}
!203 = metadata !{i64 203}
!204 = metadata !{i64 204}
!205 = metadata !{i64 205}
!206 = metadata !{i64 206}
!207 = metadata !{i64 207}
!208 = metadata !{i64 208}
!209 = metadata !{i64 209}
!210 = metadata !{i64 210}
!211 = metadata !{i64 211}
!212 = metadata !{i64 212}
!213 = metadata !{i64 213}
!214 = metadata !{i64 214}
!215 = metadata !{i64 215}
!216 = metadata !{i64 216}
!217 = metadata !{i64 217}
!218 = metadata !{i64 218}
!219 = metadata !{i64 219}
!220 = metadata !{i64 220}
!221 = metadata !{i64 221}
!222 = metadata !{i64 222}
!223 = metadata !{i64 223}
!224 = metadata !{i64 224}
!225 = metadata !{i64 225}
!226 = metadata !{i64 226}
!227 = metadata !{i64 227}
!228 = metadata !{i64 228}
!229 = metadata !{i64 229}
!230 = metadata !{i64 230}
!231 = metadata !{i64 231}
!232 = metadata !{i64 232}
!233 = metadata !{i64 233}
!234 = metadata !{i64 234}
!235 = metadata !{i64 235}
!236 = metadata !{i64 236}
!237 = metadata !{i64 237}
!238 = metadata !{i64 238}
!239 = metadata !{i64 239}
!240 = metadata !{i64 240}
!241 = metadata !{i64 241}
!242 = metadata !{i64 242}
!243 = metadata !{i64 243}
!244 = metadata !{i64 244}
!245 = metadata !{i64 245}
!246 = metadata !{i64 246}
!247 = metadata !{i64 247}
!248 = metadata !{i64 248}
!249 = metadata !{i64 249}
!250 = metadata !{i64 250}
!251 = metadata !{i64 251}
!252 = metadata !{i64 252}
!253 = metadata !{i64 253}
!254 = metadata !{i64 254}
!255 = metadata !{i64 255}
!256 = metadata !{i64 256}
!257 = metadata !{i64 257}
!258 = metadata !{i64 258}
!259 = metadata !{i64 259}
!260 = metadata !{i64 260}
!261 = metadata !{i64 261}
!262 = metadata !{i64 262}
!263 = metadata !{i64 263}
!264 = metadata !{i64 264}
!265 = metadata !{i64 265}
!266 = metadata !{i64 266}
!267 = metadata !{i64 267}
!268 = metadata !{i64 268}
!269 = metadata !{i64 269}
!270 = metadata !{i64 270}
!271 = metadata !{i64 271}
!272 = metadata !{i64 272}
!273 = metadata !{i64 273}
!274 = metadata !{i64 274}
!275 = metadata !{i64 275}
!276 = metadata !{i64 276}
!277 = metadata !{i64 277}
!278 = metadata !{i64 278}
!279 = metadata !{i64 279}
!280 = metadata !{i64 280}
!281 = metadata !{i64 281}
!282 = metadata !{i64 282}
!283 = metadata !{i64 283}
!284 = metadata !{i64 284}
!285 = metadata !{i64 285}
!286 = metadata !{i64 286}
!287 = metadata !{i64 287}
!288 = metadata !{i64 288}
!289 = metadata !{i64 289}
!290 = metadata !{i64 290}
!291 = metadata !{i64 291}
!292 = metadata !{i64 292}
!293 = metadata !{i64 293}
!294 = metadata !{i64 294}
!295 = metadata !{i64 295}
!296 = metadata !{i64 296}
!297 = metadata !{i64 297}
!298 = metadata !{i64 298}
!299 = metadata !{i64 299}
!300 = metadata !{i64 300}
!301 = metadata !{i64 301}
!302 = metadata !{i64 302}
!303 = metadata !{i64 303}
!304 = metadata !{i64 304}
!305 = metadata !{i64 305}
!306 = metadata !{i64 306}
!307 = metadata !{i64 307}
!308 = metadata !{i64 308}
!309 = metadata !{i64 309}
!310 = metadata !{i64 310}
!311 = metadata !{i64 311}
!312 = metadata !{i64 312}
!313 = metadata !{i64 313}
!314 = metadata !{i64 314}
!315 = metadata !{i64 315}
!316 = metadata !{i64 316}
!317 = metadata !{i64 317}
!318 = metadata !{i64 318}
!319 = metadata !{i64 319}
!320 = metadata !{i64 320}
!321 = metadata !{i64 321}
!322 = metadata !{i64 322}
!323 = metadata !{i64 323}
!324 = metadata !{i64 324}
!325 = metadata !{i64 325}
!326 = metadata !{i64 326}
!327 = metadata !{i64 327}
!328 = metadata !{i64 328}
!329 = metadata !{i64 329}
!330 = metadata !{i64 330}
!331 = metadata !{i64 331}
!332 = metadata !{i64 332}
!333 = metadata !{i64 333}
!334 = metadata !{i64 334}
!335 = metadata !{i64 335}
!336 = metadata !{i64 336}
!337 = metadata !{i64 337}
!338 = metadata !{i64 338}
!339 = metadata !{i64 339}
!340 = metadata !{i64 340}
!341 = metadata !{i64 341}
!342 = metadata !{i64 342}
!343 = metadata !{i64 343}
!344 = metadata !{i64 344}
!345 = metadata !{i64 345}
!346 = metadata !{i64 346}
!347 = metadata !{i64 347}
!348 = metadata !{i64 348}
!349 = metadata !{i64 349}
!350 = metadata !{i64 350}
!351 = metadata !{i64 351}
!352 = metadata !{i64 352}
!353 = metadata !{i64 353}
!354 = metadata !{i64 354}
!355 = metadata !{i64 355}
!356 = metadata !{i64 356}
!357 = metadata !{i64 357}
!358 = metadata !{i64 358}
!359 = metadata !{i64 359}
!360 = metadata !{i64 360}
!361 = metadata !{i64 361}
!362 = metadata !{i64 362}
!363 = metadata !{i64 363}
!364 = metadata !{i64 364}
!365 = metadata !{i64 365}
!366 = metadata !{i64 366}
!367 = metadata !{i64 367}
!368 = metadata !{i64 368}
!369 = metadata !{i64 369}
!370 = metadata !{i64 370}
!371 = metadata !{i64 371}
!372 = metadata !{i64 372}
!373 = metadata !{i64 373}
!374 = metadata !{i64 374}
!375 = metadata !{i64 375}
!376 = metadata !{i64 376}
!377 = metadata !{i64 377}
!378 = metadata !{i64 378}
!379 = metadata !{i64 379}
!380 = metadata !{i64 380}
!381 = metadata !{i64 381}
!382 = metadata !{i64 382}
!383 = metadata !{i64 383}
!384 = metadata !{i64 384}
!385 = metadata !{i64 385}
!386 = metadata !{i64 386}
!387 = metadata !{i64 387}
!388 = metadata !{i64 388}
!389 = metadata !{i64 389}
!390 = metadata !{i64 390}
!391 = metadata !{i64 391}
!392 = metadata !{i64 392}
!393 = metadata !{i64 393}
!394 = metadata !{i64 394}
!395 = metadata !{i64 395}
!396 = metadata !{i64 396}
!397 = metadata !{i64 397}
!398 = metadata !{i64 398}
!399 = metadata !{i64 399}
!400 = metadata !{i64 400}
!401 = metadata !{i64 401}
!402 = metadata !{i64 402}
!403 = metadata !{i64 403}
!404 = metadata !{i64 404}
!405 = metadata !{i64 405}
!406 = metadata !{i64 406}
!407 = metadata !{i64 407}
!408 = metadata !{i64 408}
!409 = metadata !{i64 409}
!410 = metadata !{i64 410}
!411 = metadata !{i64 411}
!412 = metadata !{i64 412}
!413 = metadata !{i64 413}
!414 = metadata !{i64 414}
!415 = metadata !{i64 415}
!416 = metadata !{i64 416}
!417 = metadata !{i64 417}
!418 = metadata !{i64 418}
!419 = metadata !{i64 419}
!420 = metadata !{i64 420}
!421 = metadata !{i64 421}
!422 = metadata !{i64 422}
!423 = metadata !{i64 423}
!424 = metadata !{i64 424}
!425 = metadata !{i64 425}
!426 = metadata !{i64 426}
!427 = metadata !{i64 427}
!428 = metadata !{i64 428}
!429 = metadata !{i64 429}
!430 = metadata !{i64 430}
!431 = metadata !{i64 431}
!432 = metadata !{i64 432}
!433 = metadata !{i64 433}
!434 = metadata !{i64 434}
!435 = metadata !{i64 435}
!436 = metadata !{i64 436}
!437 = metadata !{i64 437}
!438 = metadata !{i64 438}
!439 = metadata !{i64 439}
!440 = metadata !{i64 440}
!441 = metadata !{i64 441}
!442 = metadata !{i64 442}
!443 = metadata !{i64 443}
!444 = metadata !{i64 444}
!445 = metadata !{i64 445}
!446 = metadata !{i64 446}
!447 = metadata !{i64 447}
!448 = metadata !{i64 448}
!449 = metadata !{i64 449}
!450 = metadata !{i64 450}
!451 = metadata !{i64 451}
!452 = metadata !{i64 452}
!453 = metadata !{i64 453}
!454 = metadata !{i64 454}
!455 = metadata !{i64 455}
!456 = metadata !{i64 456}
!457 = metadata !{i64 457}
!458 = metadata !{i64 458}
!459 = metadata !{i64 459}
!460 = metadata !{i64 460}
!461 = metadata !{i64 461}
!462 = metadata !{i64 462}
!463 = metadata !{i64 463}
!464 = metadata !{i64 464}
!465 = metadata !{i64 465}
!466 = metadata !{i64 466}
!467 = metadata !{i64 467}
!468 = metadata !{i64 468}
!469 = metadata !{i64 469}
!470 = metadata !{i64 470}
!471 = metadata !{i64 471}
!472 = metadata !{i64 472}
!473 = metadata !{i64 473}
!474 = metadata !{i64 474}
!475 = metadata !{i64 475}
!476 = metadata !{i64 476}
!477 = metadata !{i64 477}
!478 = metadata !{i64 478}
!479 = metadata !{i64 479}
!480 = metadata !{i64 480}
!481 = metadata !{i64 481}
!482 = metadata !{i64 482}
!483 = metadata !{i64 483}
!484 = metadata !{i64 484}
!485 = metadata !{i64 485}
!486 = metadata !{i64 486}
!487 = metadata !{i64 487}
!488 = metadata !{i64 488}
!489 = metadata !{i64 489}
!490 = metadata !{i64 490}
!491 = metadata !{i64 491}
!492 = metadata !{i64 492}
!493 = metadata !{i64 493}
!494 = metadata !{i64 494}
!495 = metadata !{i64 495}
!496 = metadata !{i64 496}
!497 = metadata !{i64 497}
!498 = metadata !{i64 498}
!499 = metadata !{i64 499}
!500 = metadata !{i64 500}
!501 = metadata !{i64 501}
!502 = metadata !{i64 502}
!503 = metadata !{i64 503}
!504 = metadata !{i64 504}
!505 = metadata !{i64 505}
!506 = metadata !{i64 506}
!507 = metadata !{i64 507}
!508 = metadata !{i64 508}
!509 = metadata !{i64 509}
!510 = metadata !{i64 510}
!511 = metadata !{i64 511}
!512 = metadata !{i64 512}
!513 = metadata !{i64 513}
!514 = metadata !{i64 514}
!515 = metadata !{i64 515}
!516 = metadata !{i64 516}
!517 = metadata !{i64 517}
!518 = metadata !{i64 518}
!519 = metadata !{i64 519}
!520 = metadata !{i64 520}
!521 = metadata !{i64 521}
!522 = metadata !{i64 522}
!523 = metadata !{i64 523}
!524 = metadata !{i64 524}
!525 = metadata !{i64 525}
!526 = metadata !{i64 526}
!527 = metadata !{i64 527}
!528 = metadata !{i64 528}
!529 = metadata !{i64 529}
!530 = metadata !{i64 530}
!531 = metadata !{i64 531}
!532 = metadata !{i64 532}
!533 = metadata !{i64 533}
!534 = metadata !{i64 534}
!535 = metadata !{i64 535}
!536 = metadata !{i64 536}
!537 = metadata !{i64 537}
!538 = metadata !{i64 538}
!539 = metadata !{i64 539}
!540 = metadata !{i64 540}
!541 = metadata !{i64 541}
!542 = metadata !{i64 542}
!543 = metadata !{i64 543}
!544 = metadata !{i64 544}
!545 = metadata !{i64 545}
!546 = metadata !{i64 546}
!547 = metadata !{i64 547}
!548 = metadata !{i64 548}
!549 = metadata !{i64 549}
!550 = metadata !{i64 550}
!551 = metadata !{i64 551}
!552 = metadata !{i64 552}
!553 = metadata !{i64 553}
!554 = metadata !{i64 554}
!555 = metadata !{i64 555}
!556 = metadata !{i64 556}
!557 = metadata !{i64 557}
!558 = metadata !{i64 558}
!559 = metadata !{i64 559}
!560 = metadata !{i64 560}
!561 = metadata !{i64 561}
!562 = metadata !{i64 562}
!563 = metadata !{i64 563}
!564 = metadata !{i64 564}
!565 = metadata !{i64 565}
!566 = metadata !{i64 566}
!567 = metadata !{i64 567}
!568 = metadata !{i64 568}
!569 = metadata !{i64 569}
!570 = metadata !{i64 570}
!571 = metadata !{i64 571}
!572 = metadata !{i64 572}
!573 = metadata !{i64 573}
!574 = metadata !{i64 574}
!575 = metadata !{i64 575}
!576 = metadata !{i64 576}
!577 = metadata !{i64 577}
!578 = metadata !{i64 578}
!579 = metadata !{i64 579}
!580 = metadata !{i64 580}
!581 = metadata !{i64 581}
!582 = metadata !{i64 582}
!583 = metadata !{i64 583}
!584 = metadata !{i64 584}
!585 = metadata !{i64 585}
!586 = metadata !{i64 586}
!587 = metadata !{i64 587}
!588 = metadata !{i64 588}
!589 = metadata !{i64 589}
!590 = metadata !{i64 590}
!591 = metadata !{i64 591}
!592 = metadata !{i64 592}
!593 = metadata !{i64 593}
!594 = metadata !{i64 594}
!595 = metadata !{i64 595}
!596 = metadata !{i64 596}
!597 = metadata !{i64 597}
!598 = metadata !{i64 598}
!599 = metadata !{i64 599}
!600 = metadata !{i64 600}
!601 = metadata !{i64 601}
!602 = metadata !{i64 602}
!603 = metadata !{i64 603}
!604 = metadata !{i64 604}
!605 = metadata !{i64 605}
!606 = metadata !{i64 606}
!607 = metadata !{i64 607}
!608 = metadata !{i64 608}
!609 = metadata !{i64 609}
!610 = metadata !{i64 610}
!611 = metadata !{i64 611}
!612 = metadata !{i64 612}
!613 = metadata !{i64 613}
!614 = metadata !{i64 614}
!615 = metadata !{i64 615}
!616 = metadata !{i64 616}
!617 = metadata !{i64 617}
!618 = metadata !{i64 618}
!619 = metadata !{i64 619}
!620 = metadata !{i64 620}
!621 = metadata !{i64 621}
!622 = metadata !{i64 622}
!623 = metadata !{i64 623}
!624 = metadata !{i64 624}
!625 = metadata !{i64 625}
!626 = metadata !{i64 626}
!627 = metadata !{i64 627}
!628 = metadata !{i64 628}
!629 = metadata !{i64 629}
!630 = metadata !{i64 630}
!631 = metadata !{i64 631}
!632 = metadata !{i64 632}
!633 = metadata !{i64 633}
!634 = metadata !{i64 634}
!635 = metadata !{i64 635}
!636 = metadata !{i64 636}
!637 = metadata !{i64 637}
!638 = metadata !{i64 638}
!639 = metadata !{i64 639}
!640 = metadata !{i64 640}
!641 = metadata !{i64 641}
!642 = metadata !{i64 642}
!643 = metadata !{i64 643}
!644 = metadata !{i64 644}
!645 = metadata !{i64 645}
!646 = metadata !{i64 646}
!647 = metadata !{i64 647}
!648 = metadata !{i64 648}
!649 = metadata !{i64 649}
!650 = metadata !{i64 650}
!651 = metadata !{i64 651}
!652 = metadata !{i64 652}
!653 = metadata !{i64 653}
!654 = metadata !{i64 654}
!655 = metadata !{i64 655}
!656 = metadata !{i64 656}
!657 = metadata !{i64 657}
!658 = metadata !{i64 658}
!659 = metadata !{i64 659}
!660 = metadata !{i64 660}
!661 = metadata !{i64 661}
!662 = metadata !{i64 662}
!663 = metadata !{i64 663}
!664 = metadata !{i64 664}
!665 = metadata !{i64 665}
!666 = metadata !{i64 666}
!667 = metadata !{i64 667}
!668 = metadata !{i64 668}
!669 = metadata !{i64 669}
!670 = metadata !{i64 670}
!671 = metadata !{i64 671}
!672 = metadata !{i64 672}
!673 = metadata !{i64 673}
!674 = metadata !{i64 674}
!675 = metadata !{i64 675}
!676 = metadata !{i64 676}
!677 = metadata !{i64 677}
!678 = metadata !{i64 678}
!679 = metadata !{i64 679}
!680 = metadata !{i64 680}
!681 = metadata !{i64 681}
!682 = metadata !{i64 682}
!683 = metadata !{i64 683}
!684 = metadata !{i64 684}
!685 = metadata !{i64 685}
!686 = metadata !{i64 686}
!687 = metadata !{i64 687}
!688 = metadata !{i64 688}
!689 = metadata !{i64 689}
!690 = metadata !{i64 690}
!691 = metadata !{i64 691}
!692 = metadata !{i64 692}
!693 = metadata !{i64 693}
!694 = metadata !{i64 694}
!695 = metadata !{i64 695}
!696 = metadata !{i64 696}
!697 = metadata !{i64 697}
!698 = metadata !{i64 698}
!699 = metadata !{i64 699}
!700 = metadata !{i64 700}
!701 = metadata !{i64 701}
!702 = metadata !{i64 702}
!703 = metadata !{i64 703}
!704 = metadata !{i64 704}
!705 = metadata !{i64 705}
!706 = metadata !{i64 706}
!707 = metadata !{i64 707}
!708 = metadata !{i64 708}
!709 = metadata !{i64 709}
!710 = metadata !{i64 710}
!711 = metadata !{i64 711}
!712 = metadata !{i64 712}
!713 = metadata !{i64 713}
!714 = metadata !{i64 714}
!715 = metadata !{i64 715}
!716 = metadata !{i64 716}
!717 = metadata !{i64 717}
!718 = metadata !{i64 718}
!719 = metadata !{i64 719}
!720 = metadata !{i64 720}
!721 = metadata !{i64 721}
!722 = metadata !{i64 722}
!723 = metadata !{i64 723}
!724 = metadata !{i64 724}
!725 = metadata !{i64 725}
!726 = metadata !{i64 726}
!727 = metadata !{i64 727}
!728 = metadata !{i64 728}
!729 = metadata !{i64 729}
!730 = metadata !{i64 730}
!731 = metadata !{i64 731}
!732 = metadata !{i64 732}
!733 = metadata !{i64 733}
!734 = metadata !{i64 734}
!735 = metadata !{i64 735}
!736 = metadata !{i64 736}
!737 = metadata !{i64 737}
!738 = metadata !{i64 738}
!739 = metadata !{i64 739}
!740 = metadata !{i64 740}
!741 = metadata !{i64 741}
!742 = metadata !{i64 742}
!743 = metadata !{i64 743}
!744 = metadata !{i64 744}
!745 = metadata !{i64 745}
!746 = metadata !{i64 746}
!747 = metadata !{i64 747}
!748 = metadata !{i64 748}
!749 = metadata !{i64 749}
!750 = metadata !{i64 750}
!751 = metadata !{i64 751}
!752 = metadata !{i64 752}
!753 = metadata !{i64 753}
!754 = metadata !{i64 754}
!755 = metadata !{i64 755}
!756 = metadata !{i64 756}
!757 = metadata !{i64 757}
!758 = metadata !{i64 758}
!759 = metadata !{i64 759}
!760 = metadata !{i64 760}
!761 = metadata !{i64 761}
!762 = metadata !{i64 762}
!763 = metadata !{i64 763}
!764 = metadata !{i64 764}
!765 = metadata !{i64 765}
!766 = metadata !{i64 766}
!767 = metadata !{i64 767}
!768 = metadata !{i64 768}
!769 = metadata !{i64 769}
!770 = metadata !{i64 770}
!771 = metadata !{i64 771}
!772 = metadata !{i64 772}
!773 = metadata !{i64 773}
!774 = metadata !{i64 774}
!775 = metadata !{i64 775}
!776 = metadata !{i64 776}
!777 = metadata !{i64 777}
!778 = metadata !{i64 778}
!779 = metadata !{i64 779}
!780 = metadata !{i64 780}
!781 = metadata !{i64 781}
!782 = metadata !{i64 782}
!783 = metadata !{i64 783}
!784 = metadata !{i64 784}
!785 = metadata !{i64 785}
!786 = metadata !{i64 786}
!787 = metadata !{i64 787}
!788 = metadata !{i64 788}
!789 = metadata !{i64 789}
!790 = metadata !{i64 790}
!791 = metadata !{i64 791}
!792 = metadata !{i64 792}
!793 = metadata !{i64 793}
!794 = metadata !{i64 794}
!795 = metadata !{i64 795}
!796 = metadata !{i64 796}
!797 = metadata !{i64 797}
!798 = metadata !{i64 798}
!799 = metadata !{i64 799}
!800 = metadata !{i64 800}
!801 = metadata !{i64 801}
!802 = metadata !{i64 802}
!803 = metadata !{i64 803}
!804 = metadata !{i64 804}
!805 = metadata !{i64 805}
!806 = metadata !{i64 806}
!807 = metadata !{i64 807}
!808 = metadata !{i64 808}
!809 = metadata !{i64 809}
!810 = metadata !{i64 810}
!811 = metadata !{i64 811}
!812 = metadata !{i64 812}
!813 = metadata !{i64 813}
!814 = metadata !{i64 814}
!815 = metadata !{i64 815}
!816 = metadata !{i64 816}
!817 = metadata !{i64 817}
!818 = metadata !{i64 818}
!819 = metadata !{i64 819}
!820 = metadata !{i64 820}
!821 = metadata !{i64 821}
!822 = metadata !{i64 822}
!823 = metadata !{i64 823}
!824 = metadata !{i64 824}
!825 = metadata !{i64 825}
!826 = metadata !{i64 826}
!827 = metadata !{i64 827}
!828 = metadata !{i64 828}
!829 = metadata !{i64 829}
!830 = metadata !{i64 830}
!831 = metadata !{i64 831}
!832 = metadata !{i64 832}
!833 = metadata !{i64 833}
!834 = metadata !{i64 834}
!835 = metadata !{i64 835}
!836 = metadata !{i64 836}
!837 = metadata !{i64 837}
!838 = metadata !{i64 838}
!839 = metadata !{i64 839}
!840 = metadata !{i64 840}
!841 = metadata !{i64 841}
!842 = metadata !{i64 842}
!843 = metadata !{i64 843}
!844 = metadata !{i64 844}
!845 = metadata !{i64 845}
!846 = metadata !{i64 846}
!847 = metadata !{i64 847}
!848 = metadata !{i64 848}
!849 = metadata !{i64 849}
!850 = metadata !{i64 850}
!851 = metadata !{i64 851}
!852 = metadata !{i64 852}
!853 = metadata !{i64 853}
!854 = metadata !{i64 854}
!855 = metadata !{i64 855}
!856 = metadata !{i64 856}
!857 = metadata !{i64 857}
!858 = metadata !{i64 858}
!859 = metadata !{i64 859}
!860 = metadata !{i64 860}
!861 = metadata !{i64 861}
!862 = metadata !{i64 862}
!863 = metadata !{i64 863}
!864 = metadata !{i64 864}
!865 = metadata !{i64 865}
!866 = metadata !{i64 866}
!867 = metadata !{i64 867}
!868 = metadata !{i64 868}
!869 = metadata !{i64 869}
!870 = metadata !{i64 870}
!871 = metadata !{i64 871}
!872 = metadata !{i64 872}
!873 = metadata !{i64 873}
!874 = metadata !{i64 874}
!875 = metadata !{i64 875}
!876 = metadata !{i64 876}
!877 = metadata !{i64 877}
!878 = metadata !{i64 878}
!879 = metadata !{i64 879}
!880 = metadata !{i64 880}
!881 = metadata !{i64 881}
!882 = metadata !{i64 882}
!883 = metadata !{i64 883}
!884 = metadata !{i64 884}
!885 = metadata !{i64 885}
!886 = metadata !{i64 886}
!887 = metadata !{i64 887}
!888 = metadata !{i64 888}
!889 = metadata !{i64 889}
!890 = metadata !{i64 890}
!891 = metadata !{i64 891}
!892 = metadata !{i64 892}
!893 = metadata !{i64 893}
!894 = metadata !{i64 894}
!895 = metadata !{i64 895}
!896 = metadata !{i64 896}
!897 = metadata !{i64 897}
!898 = metadata !{i64 898}
!899 = metadata !{i64 899}
!900 = metadata !{i64 900}
!901 = metadata !{i64 901}
!902 = metadata !{i64 902}
!903 = metadata !{i64 903}
!904 = metadata !{i64 904}
!905 = metadata !{i64 905}
!906 = metadata !{i64 906}
!907 = metadata !{i64 907}
!908 = metadata !{i64 908}
!909 = metadata !{i64 909}
!910 = metadata !{i64 910}
!911 = metadata !{i64 911}
!912 = metadata !{i64 912}
!913 = metadata !{i64 913}
!914 = metadata !{i64 914}
!915 = metadata !{i64 915}
!916 = metadata !{i64 916}
!917 = metadata !{i64 917}
!918 = metadata !{i64 918}
!919 = metadata !{i64 919}
!920 = metadata !{i64 920}
!921 = metadata !{i64 921}
!922 = metadata !{i64 922}
!923 = metadata !{i64 923}
!924 = metadata !{i64 924}
!925 = metadata !{i64 925}
!926 = metadata !{i64 926}
!927 = metadata !{i64 927}
!928 = metadata !{i64 928}
!929 = metadata !{i64 929}
!930 = metadata !{i64 930}
!931 = metadata !{i64 931}
!932 = metadata !{i64 932}
!933 = metadata !{i64 933}
!934 = metadata !{i64 934}
!935 = metadata !{i64 935}
!936 = metadata !{i64 936}
!937 = metadata !{i64 937}
!938 = metadata !{i64 938}
!939 = metadata !{i64 939}
!940 = metadata !{i64 940}
!941 = metadata !{i64 941}
!942 = metadata !{i64 942}
!943 = metadata !{i64 943}
!944 = metadata !{i64 944}
!945 = metadata !{i64 945}
!946 = metadata !{i64 946}
!947 = metadata !{i64 947}
!948 = metadata !{i64 948}
!949 = metadata !{i64 949}
!950 = metadata !{i64 950}
!951 = metadata !{i64 951}
!952 = metadata !{i64 952}
!953 = metadata !{i64 953}
!954 = metadata !{i64 954}
!955 = metadata !{i64 955}
!956 = metadata !{i64 956}
!957 = metadata !{i64 957}
!958 = metadata !{i64 958}
!959 = metadata !{i64 959}
!960 = metadata !{i64 960}
!961 = metadata !{i64 961}
!962 = metadata !{i64 962}
!963 = metadata !{i64 963}
!964 = metadata !{i64 964}
!965 = metadata !{i64 965}
!966 = metadata !{i64 966}
!967 = metadata !{i64 967}
!968 = metadata !{i64 968}
!969 = metadata !{i64 969}
!970 = metadata !{i64 970}
!971 = metadata !{i64 971}
!972 = metadata !{i64 972}
!973 = metadata !{i64 973}
!974 = metadata !{i64 974}
!975 = metadata !{i64 975}
!976 = metadata !{i64 976}
!977 = metadata !{i64 977}
!978 = metadata !{i64 978}
!979 = metadata !{i64 979}
!980 = metadata !{i64 980}
!981 = metadata !{i64 981}
!982 = metadata !{i64 982}
!983 = metadata !{i64 983}
!984 = metadata !{i64 984}
!985 = metadata !{i64 985}
!986 = metadata !{i64 986}
!987 = metadata !{i64 987}
!988 = metadata !{i64 988}
!989 = metadata !{i64 989}
!990 = metadata !{i64 990}
!991 = metadata !{i64 991}
!992 = metadata !{i64 992}
!993 = metadata !{i64 993}
!994 = metadata !{i64 994}
!995 = metadata !{i64 995}
!996 = metadata !{i64 996}
!997 = metadata !{i64 997}
!998 = metadata !{i64 998}
!999 = metadata !{i64 999}
!1000 = metadata !{i64 1000}
!1001 = metadata !{i64 1001}
!1002 = metadata !{i64 1002}
!1003 = metadata !{i64 1003}
!1004 = metadata !{i64 1004}
!1005 = metadata !{i64 1005}
!1006 = metadata !{i64 1006}
!1007 = metadata !{i64 1007}
!1008 = metadata !{i64 1008}
!1009 = metadata !{i64 1009}
!1010 = metadata !{i64 1010}
!1011 = metadata !{i64 1011}
!1012 = metadata !{i64 1012}
!1013 = metadata !{i64 1013}
!1014 = metadata !{i64 1014}
!1015 = metadata !{i64 1015}
!1016 = metadata !{i64 1016}
!1017 = metadata !{i64 1017}
!1018 = metadata !{i64 1018}
!1019 = metadata !{i64 1019}
!1020 = metadata !{i64 1020}
!1021 = metadata !{i64 1021}
!1022 = metadata !{i64 1022}
!1023 = metadata !{i64 1023}
!1024 = metadata !{i64 1024}
!1025 = metadata !{i64 1025}
!1026 = metadata !{i64 1026}
!1027 = metadata !{i64 1027}
!1028 = metadata !{i64 1028}
!1029 = metadata !{i64 1029}
!1030 = metadata !{i64 1030}
!1031 = metadata !{i64 1031}
!1032 = metadata !{i64 1032}
!1033 = metadata !{i64 1033}
!1034 = metadata !{i64 1034}
!1035 = metadata !{i64 1035}
!1036 = metadata !{i64 1036}
!1037 = metadata !{i64 1037}
!1038 = metadata !{i64 1038}
!1039 = metadata !{i64 1039}
!1040 = metadata !{i64 1040}
!1041 = metadata !{i64 1041}
!1042 = metadata !{i64 1042}
!1043 = metadata !{i64 1043}
!1044 = metadata !{i64 1044}
!1045 = metadata !{i64 1045}
!1046 = metadata !{i64 1046}
!1047 = metadata !{i64 1047}
!1048 = metadata !{i64 1048}
!1049 = metadata !{i64 1049}
!1050 = metadata !{i64 1050}
!1051 = metadata !{i64 1051}
!1052 = metadata !{i64 1052}
!1053 = metadata !{i64 1053}
!1054 = metadata !{i64 1054}
!1055 = metadata !{i64 1055}
!1056 = metadata !{i64 1056}
!1057 = metadata !{i64 1057}
!1058 = metadata !{i64 1058}
!1059 = metadata !{i64 1059}
!1060 = metadata !{i64 1060}
!1061 = metadata !{i64 1061}
!1062 = metadata !{i64 1062}
!1063 = metadata !{i64 1063}
!1064 = metadata !{i64 1064}
!1065 = metadata !{i64 1065}
!1066 = metadata !{i64 1066}
!1067 = metadata !{i64 1067}
!1068 = metadata !{i64 1068}
!1069 = metadata !{i64 1069}
!1070 = metadata !{i64 1070}
!1071 = metadata !{i64 1071}
!1072 = metadata !{i64 1072}
!1073 = metadata !{i64 1073}
!1074 = metadata !{i64 1074}
!1075 = metadata !{i64 1075}
!1076 = metadata !{i64 1076}
