; ModuleID = '/research-projects/fault-tolerance/SC25-Unified-SDC-Coverage/random-fi-parallel/hpccg/hpccg-64-64-64/fi-0/hpccg.ll'
target datalayout = "e-p:64:64:64-i1:8:8-i8:8:8-i16:16:16-i32:32:32-i64:64:64-f32:32:32-f64:64:64-v64:64:64-v128:128:128-a0:0:64-s0:64:64-f80:128:128-n8:16:32:64-S128"
target triple = "x86_64-unknown-linux-gnu"

%"class.std::ios_base::Init" = type { i8 }
%"class.std::basic_ostream" = type { i32 (...)**, %"class.std::basic_ios" }
%"class.std::basic_ios" = type { %"class.std::ios_base", %"class.std::basic_ostream"*, i8, i8, %"class.std::basic_streambuf"*, %"class.std::ctype"*, %"class.std::num_put"*, %"class.std::num_get"* }
%"class.std::ios_base" = type { i32 (...)**, i64, i64, i32, i32, i32, %"struct.std::ios_base::_Callback_list"*, %"struct.std::ios_base::_Words", [8 x %"struct.std::ios_base::_Words"], i32, %"struct.std::ios_base::_Words"*, %"class.std::locale" }
%"struct.std::ios_base::_Callback_list" = type { %"struct.std::ios_base::_Callback_list"*, void (i32, %"class.std::ios_base"*, i32)*, i32, i32 }
%"struct.std::ios_base::_Words" = type { i8*, i64 }
%"class.std::locale" = type { %"class.std::locale::_Impl"* }
%"class.std::locale::_Impl" = type { i32, %"class.std::locale::facet"**, i64, %"class.std::locale::facet"**, i8** }
%"class.std::locale::facet" = type { i32 (...)**, i32 }
%"class.std::basic_streambuf" = type { i32 (...)**, i8*, i8*, i8*, i8*, i8*, i8*, %"class.std::locale" }
%"class.std::ctype" = type { %"class.std::locale::facet", %struct.__locale_struct*, i8, i32*, i32*, i16*, i8, [256 x i8], [256 x i8], i8 }
%struct.__locale_struct = type { [13 x %struct.__locale_data*], i16*, i32*, i32*, [13 x i8*] }
%struct.__locale_data = type opaque
%"class.std::num_put" = type { %"class.std::locale::facet" }
%"class.std::num_get" = type { %"class.std::locale::facet" }
%struct.HPC_Sparse_Matrix_STRUCT = type { i8*, i32, i32, i32, i64, i32, i32, i32, i32*, double**, i32**, double**, double*, i32* }
%struct._IO_FILE = type { i32, i8*, i8*, i8*, i8*, i8*, i8*, i8*, i8*, i8*, i8*, i8*, %struct._IO_marker*, %struct._IO_FILE*, i32, i32, i64, i16, i8, [1 x i8], i8*, i64, i8*, i8*, i8*, i8*, i64, i32, [20 x i8] }
%struct._IO_marker = type { %struct._IO_marker*, %struct._IO_FILE*, i32 }

@_ZStL8__ioinit = internal global %"class.std::ios_base::Init" zeroinitializer, align 1
@__dso_handle = external global i8
@_ZSt4cerr = external global %"class.std::basic_ostream"
@.str = private unnamed_addr constant [7 x i8] c"Usage:\00", align 1
@.str1 = private unnamed_addr constant [9 x i8] c"Mode 1: \00", align 1
@.str2 = private unnamed_addr constant [10 x i8] c" nx ny nz\00", align 1
@.str3 = private unnamed_addr constant [64 x i8] c"     where nx, ny and nz are the local sub-block dimensions, or\00", align 1
@.str4 = private unnamed_addr constant [9 x i8] c"Mode 2: \00", align 1
@.str5 = private unnamed_addr constant [16 x i8] c" HPC_data_file \00", align 1
@.str6 = private unnamed_addr constant [79 x i8] c"     where HPC_data_file is a globally accessible file containing matrix data.\00", align 1
@llvm.global_ctors = appending global [5 x { i32, void ()* }] [{ i32, void ()* } { i32 65535, void ()* @_GLOBAL__I_a }, { i32, void ()* } { i32 65535, void ()* @_GLOBAL__I_a18 }, { i32, void ()* } { i32 65535, void ()* @_GLOBAL__I_a32 }, { i32, void ()* } { i32 65535, void ()* @_GLOBAL__I_a49 }, { i32, void ()* } { i32 65535, void ()* @_GLOBAL__I_a55 }]
@_ZStL8__ioinit1 = internal global %"class.std::ios_base::Init" zeroinitializer, align 1
@.str7 = private unnamed_addr constant [13 x i8] c"local_nrow>0\00", align 1
@.str18 = private unnamed_addr constant [20 x i8] c"generate_matrix.cpp\00", align 1
@__PRETTY_FUNCTION__._Z15generate_matrixiiiPP24HPC_Sparse_Matrix_STRUCTPPdS3_S3_ = private unnamed_addr constant [91 x i8] c"void generate_matrix(int, int, int, HPC_Sparse_Matrix **, double **, double **, double **)\00", align 1
@_ZSt4cout = external global %"class.std::basic_ostream"
@.str29 = private unnamed_addr constant [9 x i8] c"Process \00", align 1
@.str310 = private unnamed_addr constant [5 x i8] c" of \00", align 1
@.str411 = private unnamed_addr constant [6 x i8] c" has \00", align 1
@.str512 = private unnamed_addr constant [20 x i8] c" rows. Global rows \00", align 1
@.str613 = private unnamed_addr constant [10 x i8] c" through \00", align 1
@.str714 = private unnamed_addr constant [11 x i8] c" nonzeros.\00", align 1
@_ZStL8__ioinit20 = internal global %"class.std::ios_base::Init" zeroinitializer, align 1
@.str21 = private unnamed_addr constant [32 x i8] c"Reading matrix info from %s...\0A\00", align 1
@.str122 = private unnamed_addr constant [2 x i8] c"r\00", align 1
@.str223 = private unnamed_addr constant [29 x i8] c"Error: Cannot open file: %s\0A\00", align 1
@.str324 = private unnamed_addr constant [3 x i8] c"%d\00", align 1
@.str425 = private unnamed_addr constant [5 x i8] c"%lld\00", align 1
@.str526 = private unnamed_addr constant [26 x i8] c"cur_local_row==local_nrow\00", align 1
@.str627 = private unnamed_addr constant [17 x i8] c"read_HPC_row.cpp\00", align 1
@__PRETTY_FUNCTION__._Z12read_HPC_rowPcPP24HPC_Sparse_Matrix_STRUCTPPdS4_S4_ = private unnamed_addr constant [81 x i8] c"void read_HPC_row(char *, HPC_Sparse_Matrix **, double **, double **, double **)\00", align 1
@.str728 = private unnamed_addr constant [9 x i8] c"Process \00", align 1
@.str8 = private unnamed_addr constant [5 x i8] c" of \00", align 1
@.str9 = private unnamed_addr constant [14 x i8] c" getting row \00", align 1
@.str10 = private unnamed_addr constant [7 x i8] c"%lf %d\00", align 1
@.str11 = private unnamed_addr constant [14 x i8] c" getting RHS \00", align 1
@.str12 = private unnamed_addr constant [12 x i8] c"%lf %lf %lf\00", align 1
@.str13 = private unnamed_addr constant [6 x i8] c" has \00", align 1
@.str14 = private unnamed_addr constant [20 x i8] c" rows. Global rows \00", align 1
@.str15 = private unnamed_addr constant [10 x i8] c" through \00", align 1
@.str16 = private unnamed_addr constant [11 x i8] c" nonzeros.\00", align 1
@.str34 = private unnamed_addr constant [9 x i8] c"mat0.dat\00", align 1
@.str135 = private unnamed_addr constant [2 x i8] c"w\00", align 1
@.str236 = private unnamed_addr constant [9 x i8] c"mat1.dat\00", align 1
@.str337 = private unnamed_addr constant [9 x i8] c"mat2.dat\00", align 1
@.str438 = private unnamed_addr constant [9 x i8] c"mat3.dat\00", align 1
@.str539 = private unnamed_addr constant [16 x i8] c" %d %d %22.16e\0A\00", align 1
@_ZStL8__ioinit42 = internal global %"class.std::ios_base::Init" zeroinitializer, align 1
@.str43 = private unnamed_addr constant [20 x i8] c"Initial Residual = \00", align 1
@.str144 = private unnamed_addr constant [13 x i8] c"Iteration = \00", align 1
@.str245 = private unnamed_addr constant [15 x i8] c"   Residual = \00", align 1
@_ZStL8__ioinit51 = internal global %"class.std::ios_base::Init" zeroinitializer, align 1

define internal void @__cxx_global_var_init() section ".text.startup" {
  call void @_ZNSt8ios_base4InitC1Ev(%"class.std::ios_base::Init"* @_ZStL8__ioinit), !llfi_index !1
  %1 = call i32 @__cxa_atexit(void (i8*)* bitcast (void (%"class.std::ios_base::Init"*)* @_ZNSt8ios_base4InitD1Ev to void (i8*)*), i8* getelementptr inbounds (%"class.std::ios_base::Init"* @_ZStL8__ioinit, i32 0, i32 0), i8* @__dso_handle) #1, !llfi_index !2
  ret void, !llfi_index !3
}

declare void @_ZNSt8ios_base4InitC1Ev(%"class.std::ios_base::Init"*) #0

declare void @_ZNSt8ios_base4InitD1Ev(%"class.std::ios_base::Init"*) #0

; Function Attrs: nounwind
declare i32 @__cxa_atexit(void (i8*)*, i8*, i8*) #1

; Function Attrs: uwtable
define i32 @main(i32 %argc, i8** %argv) #2 {
  %1 = alloca i32, align 4, !llfi_index !4
  %2 = alloca i32, align 4, !llfi_index !5
  %3 = alloca i8**, align 8, !llfi_index !6
  %A = alloca %struct.HPC_Sparse_Matrix_STRUCT*, align 8, !llfi_index !7
  %x = alloca double*, align 8, !llfi_index !8
  %b = alloca double*, align 8, !llfi_index !9
  %xexact = alloca double*, align 8, !llfi_index !10
  %norm = alloca double, align 8, !llfi_index !11
  %d = alloca double, align 8, !llfi_index !12
  %ierr = alloca i32, align 4, !llfi_index !13
  %i = alloca i32, align 4, !llfi_index !14
  %j = alloca i32, align 4, !llfi_index !15
  %ione = alloca i32, align 4, !llfi_index !16
  %times = alloca [7 x double], align 16, !llfi_index !17
  %t6 = alloca double, align 8, !llfi_index !18
  %nx = alloca i32, align 4, !llfi_index !19
  %ny = alloca i32, align 4, !llfi_index !20
  %nz = alloca i32, align 4, !llfi_index !21
  %size = alloca i32, align 4, !llfi_index !22
  %rank = alloca i32, align 4, !llfi_index !23
  %dump_matrix = alloca i8, align 1, !llfi_index !24
  %niters = alloca i32, align 4, !llfi_index !25
  %normr = alloca double, align 8, !llfi_index !26
  %max_iter = alloca i32, align 4, !llfi_index !27
  %tolerance = alloca double, align 8, !llfi_index !28
  store i32 0, i32* %1, !llfi_index !29
  store i32 %argc, i32* %2, align 4, !llfi_index !30
  store i8** %argv, i8*** %3, align 8, !llfi_index !31
  store i32 0, i32* %ierr, align 4, !llfi_index !32
  store i32 1, i32* %ione, align 4, !llfi_index !33
  store double 0.000000e+00, double* %t6, align 8, !llfi_index !34
  store i32 1, i32* %size, align 4, !llfi_index !35
  store i32 0, i32* %rank, align 4, !llfi_index !36
  %4 = load i32* %2, align 4, !llfi_index !37
  %5 = icmp ne i32 %4, 2, !llfi_index !38
  br i1 %5, label %6, label %34, !llfi_index !39

; <label>:6                                       ; preds = %0
  %7 = load i32* %2, align 4, !llfi_index !40
  %8 = icmp ne i32 %7, 4, !llfi_index !41
  br i1 %8, label %9, label %34, !llfi_index !42

; <label>:9                                       ; preds = %6
  %10 = load i32* %rank, align 4, !llfi_index !43
  %11 = icmp eq i32 %10, 0, !llfi_index !44
  br i1 %11, label %12, label %33, !llfi_index !45

; <label>:12                                      ; preds = %9
  %13 = call %"class.std::basic_ostream"* @_ZStlsISt11char_traitsIcEERSt13basic_ostreamIcT_ES5_PKc(%"class.std::basic_ostream"* @_ZSt4cerr, i8* getelementptr inbounds ([7 x i8]* @.str, i32 0, i32 0)), !llfi_index !46
  %14 = call %"class.std::basic_ostream"* @_ZNSolsEPFRSoS_E(%"class.std::basic_ostream"* %13, %"class.std::basic_ostream"* (%"class.std::basic_ostream"*)* @_ZSt4endlIcSt11char_traitsIcEERSt13basic_ostreamIT_T0_ES6_), !llfi_index !47
  %15 = call %"class.std::basic_ostream"* @_ZStlsISt11char_traitsIcEERSt13basic_ostreamIcT_ES5_PKc(%"class.std::basic_ostream"* %14, i8* getelementptr inbounds ([9 x i8]* @.str1, i32 0, i32 0)), !llfi_index !48
  %16 = load i8*** %3, align 8, !llfi_index !49
  %17 = getelementptr inbounds i8** %16, i64 0, !llfi_index !50
  %18 = load i8** %17, align 8, !llfi_index !51
  %19 = call %"class.std::basic_ostream"* @_ZStlsISt11char_traitsIcEERSt13basic_ostreamIcT_ES5_PKc(%"class.std::basic_ostream"* %15, i8* %18), !llfi_index !52
  %20 = call %"class.std::basic_ostream"* @_ZStlsISt11char_traitsIcEERSt13basic_ostreamIcT_ES5_PKc(%"class.std::basic_ostream"* %19, i8* getelementptr inbounds ([10 x i8]* @.str2, i32 0, i32 0)), !llfi_index !53
  %21 = call %"class.std::basic_ostream"* @_ZNSolsEPFRSoS_E(%"class.std::basic_ostream"* %20, %"class.std::basic_ostream"* (%"class.std::basic_ostream"*)* @_ZSt4endlIcSt11char_traitsIcEERSt13basic_ostreamIT_T0_ES6_), !llfi_index !54
  %22 = call %"class.std::basic_ostream"* @_ZStlsISt11char_traitsIcEERSt13basic_ostreamIcT_ES5_PKc(%"class.std::basic_ostream"* %21, i8* getelementptr inbounds ([64 x i8]* @.str3, i32 0, i32 0)), !llfi_index !55
  %23 = call %"class.std::basic_ostream"* @_ZNSolsEPFRSoS_E(%"class.std::basic_ostream"* %22, %"class.std::basic_ostream"* (%"class.std::basic_ostream"*)* @_ZSt4endlIcSt11char_traitsIcEERSt13basic_ostreamIT_T0_ES6_), !llfi_index !56
  %24 = call %"class.std::basic_ostream"* @_ZStlsISt11char_traitsIcEERSt13basic_ostreamIcT_ES5_PKc(%"class.std::basic_ostream"* %23, i8* getelementptr inbounds ([9 x i8]* @.str4, i32 0, i32 0)), !llfi_index !57
  %25 = load i8*** %3, align 8, !llfi_index !58
  %26 = getelementptr inbounds i8** %25, i64 0, !llfi_index !59
  %27 = load i8** %26, align 8, !llfi_index !60
  %28 = call %"class.std::basic_ostream"* @_ZStlsISt11char_traitsIcEERSt13basic_ostreamIcT_ES5_PKc(%"class.std::basic_ostream"* %24, i8* %27), !llfi_index !61
  %29 = call %"class.std::basic_ostream"* @_ZStlsISt11char_traitsIcEERSt13basic_ostreamIcT_ES5_PKc(%"class.std::basic_ostream"* %28, i8* getelementptr inbounds ([16 x i8]* @.str5, i32 0, i32 0)), !llfi_index !62
  %30 = call %"class.std::basic_ostream"* @_ZNSolsEPFRSoS_E(%"class.std::basic_ostream"* %29, %"class.std::basic_ostream"* (%"class.std::basic_ostream"*)* @_ZSt4endlIcSt11char_traitsIcEERSt13basic_ostreamIT_T0_ES6_), !llfi_index !63
  %31 = call %"class.std::basic_ostream"* @_ZStlsISt11char_traitsIcEERSt13basic_ostreamIcT_ES5_PKc(%"class.std::basic_ostream"* %30, i8* getelementptr inbounds ([79 x i8]* @.str6, i32 0, i32 0)), !llfi_index !64
  %32 = call %"class.std::basic_ostream"* @_ZNSolsEPFRSoS_E(%"class.std::basic_ostream"* %31, %"class.std::basic_ostream"* (%"class.std::basic_ostream"*)* @_ZSt4endlIcSt11char_traitsIcEERSt13basic_ostreamIT_T0_ES6_), !llfi_index !65
  br label %33, !llfi_index !66

; <label>:33                                      ; preds = %12, %9
  call void @exit(i32 1) #10, !llfi_index !67
  unreachable, !llfi_index !68

; <label>:34                                      ; preds = %6, %0
  %35 = load i32* %2, align 4, !llfi_index !69
  %36 = icmp eq i32 %35, 4, !llfi_index !70
  br i1 %36, label %37, label %53, !llfi_index !71

; <label>:37                                      ; preds = %34
  %38 = load i8*** %3, align 8, !llfi_index !72
  %39 = getelementptr inbounds i8** %38, i64 1, !llfi_index !73
  %40 = load i8** %39, align 8, !llfi_index !74
  %41 = call i32 @atoi(i8* %40) #11, !llfi_index !75
  store i32 %41, i32* %nx, align 4, !llfi_index !76
  %42 = load i8*** %3, align 8, !llfi_index !77
  %43 = getelementptr inbounds i8** %42, i64 2, !llfi_index !78
  %44 = load i8** %43, align 8, !llfi_index !79
  %45 = call i32 @atoi(i8* %44) #11, !llfi_index !80
  store i32 %45, i32* %ny, align 4, !llfi_index !81
  %46 = load i8*** %3, align 8, !llfi_index !82
  %47 = getelementptr inbounds i8** %46, i64 3, !llfi_index !83
  %48 = load i8** %47, align 8, !llfi_index !84
  %49 = call i32 @atoi(i8* %48) #11, !llfi_index !85
  store i32 %49, i32* %nz, align 4, !llfi_index !86
  %50 = load i32* %nx, align 4, !llfi_index !87
  %51 = load i32* %ny, align 4, !llfi_index !88
  %52 = load i32* %nz, align 4, !llfi_index !89
  call void @_Z15generate_matrixiiiPP24HPC_Sparse_Matrix_STRUCTPPdS3_S3_(i32 %50, i32 %51, i32 %52, %struct.HPC_Sparse_Matrix_STRUCT** %A, double** %x, double** %b, double** %xexact), !llfi_index !90
  br label %57, !llfi_index !91

; <label>:53                                      ; preds = %34
  %54 = load i8*** %3, align 8, !llfi_index !92
  %55 = getelementptr inbounds i8** %54, i64 1, !llfi_index !93
  %56 = load i8** %55, align 8, !llfi_index !94
  call void @_Z12read_HPC_rowPcPP24HPC_Sparse_Matrix_STRUCTPPdS4_S4_(i8* %56, %struct.HPC_Sparse_Matrix_STRUCT** %A, double** %x, double** %b, double** %xexact), !llfi_index !95
  br label %57, !llfi_index !96

; <label>:57                                      ; preds = %53, %37
  store i8 0, i8* %dump_matrix, align 1, !llfi_index !97
  %58 = load i8* %dump_matrix, align 1, !llfi_index !98
  %59 = trunc i8 %58 to i1, !llfi_index !99
  br i1 %59, label %60, label %67, !llfi_index !100

; <label>:60                                      ; preds = %57
  %61 = load i32* %size, align 4, !llfi_index !101
  %62 = icmp sle i32 %61, 4, !llfi_index !102
  br i1 %62, label %63, label %67, !llfi_index !103

; <label>:63                                      ; preds = %60
  %64 = load %struct.HPC_Sparse_Matrix_STRUCT** %A, align 8, !llfi_index !104
  %65 = load i32* %rank, align 4, !llfi_index !105
  %66 = call i32 @_Z18dump_matlab_matrixP24HPC_Sparse_Matrix_STRUCTi(%struct.HPC_Sparse_Matrix_STRUCT* %64, i32 %65), !llfi_index !106
  br label %67, !llfi_index !107

; <label>:67                                      ; preds = %63, %60, %57
  store i32 0, i32* %niters, align 4, !llfi_index !108
  store double 0.000000e+00, double* %normr, align 8, !llfi_index !109
  store i32 10, i32* %max_iter, align 4, !llfi_index !110
  store double 0.000000e+00, double* %tolerance, align 8, !llfi_index !111
  %68 = load %struct.HPC_Sparse_Matrix_STRUCT** %A, align 8, !llfi_index !112
  %69 = load double** %b, align 8, !llfi_index !113
  %70 = load double** %x, align 8, !llfi_index !114
  %71 = load i32* %max_iter, align 4, !llfi_index !115
  %72 = load double* %tolerance, align 8, !llfi_index !116
  %73 = getelementptr inbounds [7 x double]* %times, i32 0, i32 0, !llfi_index !117
  %74 = call i32 @_Z5HPCCGP24HPC_Sparse_Matrix_STRUCTPKdPdidRiRdS3_(%struct.HPC_Sparse_Matrix_STRUCT* %68, double* %69, double* %70, i32 %71, double %72, i32* %niters, double* %normr, double* %73), !llfi_index !118
  store i32 %74, i32* %ierr, align 4, !llfi_index !119
  %75 = load i32* %1, !llfi_index !120
  ret i32 %75, !llfi_index !121
}

declare %"class.std::basic_ostream"* @_ZStlsISt11char_traitsIcEERSt13basic_ostreamIcT_ES5_PKc(%"class.std::basic_ostream"*, i8*) #0

declare %"class.std::basic_ostream"* @_ZNSolsEPFRSoS_E(%"class.std::basic_ostream"*, %"class.std::basic_ostream"* (%"class.std::basic_ostream"*)*) #0

declare %"class.std::basic_ostream"* @_ZSt4endlIcSt11char_traitsIcEERSt13basic_ostreamIT_T0_ES6_(%"class.std::basic_ostream"*) #0

; Function Attrs: noreturn nounwind
declare void @exit(i32) #3

; Function Attrs: nounwind readonly
declare i32 @atoi(i8*) #4

define internal void @_GLOBAL__I_a() section ".text.startup" {
  call void @__cxx_global_var_init(), !llfi_index !122
  ret void, !llfi_index !123
}

; Function Attrs: uwtable
define void @_Z15generate_matrixiiiPP24HPC_Sparse_Matrix_STRUCTPPdS3_S3_(i32 %nx, i32 %ny, i32 %nz, %struct.HPC_Sparse_Matrix_STRUCT** %A, double** %x, double** %b, double** %xexact) #2 {
  %1 = alloca i32, align 4, !llfi_index !124
  %2 = alloca i32, align 4, !llfi_index !125
  %3 = alloca i32, align 4, !llfi_index !126
  %4 = alloca %struct.HPC_Sparse_Matrix_STRUCT**, align 8, !llfi_index !127
  %5 = alloca double**, align 8, !llfi_index !128
  %6 = alloca double**, align 8, !llfi_index !129
  %7 = alloca double**, align 8, !llfi_index !130
  %debug = alloca i32, align 4, !llfi_index !131
  %size = alloca i32, align 4, !llfi_index !132
  %rank = alloca i32, align 4, !llfi_index !133
  %use_7pt_stencil = alloca i8, align 1, !llfi_index !134
  %local_nrow = alloca i32, align 4, !llfi_index !135
  %local_nnz = alloca i32, align 4, !llfi_index !136
  %total_nrow = alloca i32, align 4, !llfi_index !137
  %total_nnz = alloca i64, align 8, !llfi_index !138
  %start_row = alloca i32, align 4, !llfi_index !139
  %stop_row = alloca i32, align 4, !llfi_index !140
  %curvalptr = alloca double*, align 8, !llfi_index !141
  %curindptr = alloca i32*, align 8, !llfi_index !142
  %nnzglobal = alloca i64, align 8, !llfi_index !143
  %iz = alloca i32, align 4, !llfi_index !144
  %iy = alloca i32, align 4, !llfi_index !145
  %ix = alloca i32, align 4, !llfi_index !146
  %curlocalrow = alloca i32, align 4, !llfi_index !147
  %currow = alloca i32, align 4, !llfi_index !148
  %nnzrow = alloca i32, align 4, !llfi_index !149
  %sz = alloca i32, align 4, !llfi_index !150
  %sy = alloca i32, align 4, !llfi_index !151
  %sx = alloca i32, align 4, !llfi_index !152
  %curcol = alloca i32, align 4, !llfi_index !153
  store i32 %nx, i32* %1, align 4, !llfi_index !154
  store i32 %ny, i32* %2, align 4, !llfi_index !155
  store i32 %nz, i32* %3, align 4, !llfi_index !156
  store %struct.HPC_Sparse_Matrix_STRUCT** %A, %struct.HPC_Sparse_Matrix_STRUCT*** %4, align 8, !llfi_index !157
  store double** %x, double*** %5, align 8, !llfi_index !158
  store double** %b, double*** %6, align 8, !llfi_index !159
  store double** %xexact, double*** %7, align 8, !llfi_index !160
  store i32 0, i32* %debug, align 4, !llfi_index !161
  store i32 1, i32* %size, align 4, !llfi_index !162
  store i32 0, i32* %rank, align 4, !llfi_index !163
  %8 = call noalias i8* @_Znwm(i64 96) #12, !llfi_index !164
  %9 = bitcast i8* %8 to %struct.HPC_Sparse_Matrix_STRUCT*, !llfi_index !165
  %10 = load %struct.HPC_Sparse_Matrix_STRUCT*** %4, align 8, !llfi_index !166
  store %struct.HPC_Sparse_Matrix_STRUCT* %9, %struct.HPC_Sparse_Matrix_STRUCT** %10, align 8, !llfi_index !167
  store i8 0, i8* %use_7pt_stencil, align 1, !llfi_index !168
  %11 = load i32* %1, align 4, !llfi_index !169
  %12 = load i32* %2, align 4, !llfi_index !170
  %13 = mul nsw i32 %11, %12, !llfi_index !171
  %14 = load i32* %3, align 4, !llfi_index !172
  %15 = mul nsw i32 %13, %14, !llfi_index !173
  store i32 %15, i32* %local_nrow, align 4, !llfi_index !174
  %16 = load i32* %local_nrow, align 4, !llfi_index !175
  %17 = icmp sgt i32 %16, 0, !llfi_index !176
  br i1 %17, label %18, label %19, !llfi_index !177

; <label>:18                                      ; preds = %0
  br label %21, !llfi_index !178

; <label>:19                                      ; preds = %0
  call void @__assert_fail(i8* getelementptr inbounds ([13 x i8]* @.str7, i32 0, i32 0), i8* getelementptr inbounds ([20 x i8]* @.str18, i32 0, i32 0), i32 75, i8* getelementptr inbounds ([91 x i8]* @__PRETTY_FUNCTION__._Z15generate_matrixiiiPP24HPC_Sparse_Matrix_STRUCTPPdS3_S3_, i32 0, i32 0)) #10, !llfi_index !179
  unreachable, !llfi_index !180
                                                  ; No predecessors!
  br label %21, !llfi_index !181

; <label>:21                                      ; preds = %20, %18
  %22 = load i32* %local_nrow, align 4, !llfi_index !182
  %23 = mul nsw i32 27, %22, !llfi_index !183
  store i32 %23, i32* %local_nnz, align 4, !llfi_index !184
  %24 = load i32* %local_nrow, align 4, !llfi_index !185
  %25 = load i32* %size, align 4, !llfi_index !186
  %26 = mul nsw i32 %24, %25, !llfi_index !187
  store i32 %26, i32* %total_nrow, align 4, !llfi_index !188
  %27 = load i32* %total_nrow, align 4, !llfi_index !189
  %28 = sext i32 %27 to i64, !llfi_index !190
  %29 = mul nsw i64 27, %28, !llfi_index !191
  store i64 %29, i64* %total_nnz, align 8, !llfi_index !192
  %30 = load i32* %local_nrow, align 4, !llfi_index !193
  %31 = load i32* %rank, align 4, !llfi_index !194
  %32 = mul nsw i32 %30, %31, !llfi_index !195
  store i32 %32, i32* %start_row, align 4, !llfi_index !196
  %33 = load i32* %start_row, align 4, !llfi_index !197
  %34 = load i32* %local_nrow, align 4, !llfi_index !198
  %35 = add nsw i32 %33, %34, !llfi_index !199
  %36 = sub nsw i32 %35, 1, !llfi_index !200
  store i32 %36, i32* %stop_row, align 4, !llfi_index !201
  %37 = load i32* %local_nrow, align 4, !llfi_index !202
  %38 = sext i32 %37 to i64, !llfi_index !203
  %39 = call { i64, i1 } @llvm.umul.with.overflow.i64(i64 %38, i64 4), !llfi_index !204
  %40 = extractvalue { i64, i1 } %39, 1, !llfi_index !205
  %41 = extractvalue { i64, i1 } %39, 0, !llfi_index !206
  %42 = select i1 %40, i64 -1, i64 %41, !llfi_index !207
  %43 = call noalias i8* @_Znam(i64 %42) #12, !llfi_index !208
  %44 = bitcast i8* %43 to i32*, !llfi_index !209
  %45 = load %struct.HPC_Sparse_Matrix_STRUCT*** %4, align 8, !llfi_index !210
  %46 = load %struct.HPC_Sparse_Matrix_STRUCT** %45, align 8, !llfi_index !211
  %47 = getelementptr inbounds %struct.HPC_Sparse_Matrix_STRUCT* %46, i32 0, i32 8, !llfi_index !212
  store i32* %44, i32** %47, align 8, !llfi_index !213
  %48 = load i32* %local_nrow, align 4, !llfi_index !214
  %49 = sext i32 %48 to i64, !llfi_index !215
  %50 = call { i64, i1 } @llvm.umul.with.overflow.i64(i64 %49, i64 8), !llfi_index !216
  %51 = extractvalue { i64, i1 } %50, 1, !llfi_index !217
  %52 = extractvalue { i64, i1 } %50, 0, !llfi_index !218
  %53 = select i1 %51, i64 -1, i64 %52, !llfi_index !219
  %54 = call noalias i8* @_Znam(i64 %53) #12, !llfi_index !220
  %55 = bitcast i8* %54 to double**, !llfi_index !221
  %56 = load %struct.HPC_Sparse_Matrix_STRUCT*** %4, align 8, !llfi_index !222
  %57 = load %struct.HPC_Sparse_Matrix_STRUCT** %56, align 8, !llfi_index !223
  %58 = getelementptr inbounds %struct.HPC_Sparse_Matrix_STRUCT* %57, i32 0, i32 9, !llfi_index !224
  store double** %55, double*** %58, align 8, !llfi_index !225
  %59 = load i32* %local_nrow, align 4, !llfi_index !226
  %60 = sext i32 %59 to i64, !llfi_index !227
  %61 = call { i64, i1 } @llvm.umul.with.overflow.i64(i64 %60, i64 8), !llfi_index !228
  %62 = extractvalue { i64, i1 } %61, 1, !llfi_index !229
  %63 = extractvalue { i64, i1 } %61, 0, !llfi_index !230
  %64 = select i1 %62, i64 -1, i64 %63, !llfi_index !231
  %65 = call noalias i8* @_Znam(i64 %64) #12, !llfi_index !232
  %66 = bitcast i8* %65 to i32**, !llfi_index !233
  %67 = load %struct.HPC_Sparse_Matrix_STRUCT*** %4, align 8, !llfi_index !234
  %68 = load %struct.HPC_Sparse_Matrix_STRUCT** %67, align 8, !llfi_index !235
  %69 = getelementptr inbounds %struct.HPC_Sparse_Matrix_STRUCT* %68, i32 0, i32 10, !llfi_index !236
  store i32** %66, i32*** %69, align 8, !llfi_index !237
  %70 = load i32* %local_nrow, align 4, !llfi_index !238
  %71 = sext i32 %70 to i64, !llfi_index !239
  %72 = call { i64, i1 } @llvm.umul.with.overflow.i64(i64 %71, i64 8), !llfi_index !240
  %73 = extractvalue { i64, i1 } %72, 1, !llfi_index !241
  %74 = extractvalue { i64, i1 } %72, 0, !llfi_index !242
  %75 = select i1 %73, i64 -1, i64 %74, !llfi_index !243
  %76 = call noalias i8* @_Znam(i64 %75) #12, !llfi_index !244
  %77 = bitcast i8* %76 to double**, !llfi_index !245
  %78 = load %struct.HPC_Sparse_Matrix_STRUCT*** %4, align 8, !llfi_index !246
  %79 = load %struct.HPC_Sparse_Matrix_STRUCT** %78, align 8, !llfi_index !247
  %80 = getelementptr inbounds %struct.HPC_Sparse_Matrix_STRUCT* %79, i32 0, i32 11, !llfi_index !248
  store double** %77, double*** %80, align 8, !llfi_index !249
  %81 = load i32* %local_nrow, align 4, !llfi_index !250
  %82 = sext i32 %81 to i64, !llfi_index !251
  %83 = call { i64, i1 } @llvm.umul.with.overflow.i64(i64 %82, i64 8), !llfi_index !252
  %84 = extractvalue { i64, i1 } %83, 1, !llfi_index !253
  %85 = extractvalue { i64, i1 } %83, 0, !llfi_index !254
  %86 = select i1 %84, i64 -1, i64 %85, !llfi_index !255
  %87 = call noalias i8* @_Znam(i64 %86) #12, !llfi_index !256
  %88 = bitcast i8* %87 to double*, !llfi_index !257
  %89 = load double*** %5, align 8, !llfi_index !258
  store double* %88, double** %89, align 8, !llfi_index !259
  %90 = load i32* %local_nrow, align 4, !llfi_index !260
  %91 = sext i32 %90 to i64, !llfi_index !261
  %92 = call { i64, i1 } @llvm.umul.with.overflow.i64(i64 %91, i64 8), !llfi_index !262
  %93 = extractvalue { i64, i1 } %92, 1, !llfi_index !263
  %94 = extractvalue { i64, i1 } %92, 0, !llfi_index !264
  %95 = select i1 %93, i64 -1, i64 %94, !llfi_index !265
  %96 = call noalias i8* @_Znam(i64 %95) #12, !llfi_index !266
  %97 = bitcast i8* %96 to double*, !llfi_index !267
  %98 = load double*** %6, align 8, !llfi_index !268
  store double* %97, double** %98, align 8, !llfi_index !269
  %99 = load i32* %local_nrow, align 4, !llfi_index !270
  %100 = sext i32 %99 to i64, !llfi_index !271
  %101 = call { i64, i1 } @llvm.umul.with.overflow.i64(i64 %100, i64 8), !llfi_index !272
  %102 = extractvalue { i64, i1 } %101, 1, !llfi_index !273
  %103 = extractvalue { i64, i1 } %101, 0, !llfi_index !274
  %104 = select i1 %102, i64 -1, i64 %103, !llfi_index !275
  %105 = call noalias i8* @_Znam(i64 %104) #12, !llfi_index !276
  %106 = bitcast i8* %105 to double*, !llfi_index !277
  %107 = load double*** %7, align 8, !llfi_index !278
  store double* %106, double** %107, align 8, !llfi_index !279
  %108 = load i32* %local_nnz, align 4, !llfi_index !280
  %109 = sext i32 %108 to i64, !llfi_index !281
  %110 = call { i64, i1 } @llvm.umul.with.overflow.i64(i64 %109, i64 8), !llfi_index !282
  %111 = extractvalue { i64, i1 } %110, 1, !llfi_index !283
  %112 = extractvalue { i64, i1 } %110, 0, !llfi_index !284
  %113 = select i1 %111, i64 -1, i64 %112, !llfi_index !285
  %114 = call noalias i8* @_Znam(i64 %113) #12, !llfi_index !286
  %115 = bitcast i8* %114 to double*, !llfi_index !287
  %116 = load %struct.HPC_Sparse_Matrix_STRUCT*** %4, align 8, !llfi_index !288
  %117 = load %struct.HPC_Sparse_Matrix_STRUCT** %116, align 8, !llfi_index !289
  %118 = getelementptr inbounds %struct.HPC_Sparse_Matrix_STRUCT* %117, i32 0, i32 12, !llfi_index !290
  store double* %115, double** %118, align 8, !llfi_index !291
  %119 = load i32* %local_nnz, align 4, !llfi_index !292
  %120 = sext i32 %119 to i64, !llfi_index !293
  %121 = call { i64, i1 } @llvm.umul.with.overflow.i64(i64 %120, i64 4), !llfi_index !294
  %122 = extractvalue { i64, i1 } %121, 1, !llfi_index !295
  %123 = extractvalue { i64, i1 } %121, 0, !llfi_index !296
  %124 = select i1 %122, i64 -1, i64 %123, !llfi_index !297
  %125 = call noalias i8* @_Znam(i64 %124) #12, !llfi_index !298
  %126 = bitcast i8* %125 to i32*, !llfi_index !299
  %127 = load %struct.HPC_Sparse_Matrix_STRUCT*** %4, align 8, !llfi_index !300
  %128 = load %struct.HPC_Sparse_Matrix_STRUCT** %127, align 8, !llfi_index !301
  %129 = getelementptr inbounds %struct.HPC_Sparse_Matrix_STRUCT* %128, i32 0, i32 13, !llfi_index !302
  store i32* %126, i32** %129, align 8, !llfi_index !303
  %130 = load %struct.HPC_Sparse_Matrix_STRUCT*** %4, align 8, !llfi_index !304
  %131 = load %struct.HPC_Sparse_Matrix_STRUCT** %130, align 8, !llfi_index !305
  %132 = getelementptr inbounds %struct.HPC_Sparse_Matrix_STRUCT* %131, i32 0, i32 12, !llfi_index !306
  %133 = load double** %132, align 8, !llfi_index !307
  store double* %133, double** %curvalptr, align 8, !llfi_index !308
  %134 = load %struct.HPC_Sparse_Matrix_STRUCT*** %4, align 8, !llfi_index !309
  %135 = load %struct.HPC_Sparse_Matrix_STRUCT** %134, align 8, !llfi_index !310
  %136 = getelementptr inbounds %struct.HPC_Sparse_Matrix_STRUCT* %135, i32 0, i32 13, !llfi_index !311
  %137 = load i32** %136, align 8, !llfi_index !312
  store i32* %137, i32** %curindptr, align 8, !llfi_index !313
  store i64 0, i64* %nnzglobal, align 8, !llfi_index !314
  store i32 0, i32* %iz, align 4, !llfi_index !315
  br label %138, !llfi_index !316

; <label>:138                                     ; preds = %339, %21
  %139 = load i32* %iz, align 4, !llfi_index !317
  %140 = load i32* %3, align 4, !llfi_index !318
  %141 = icmp slt i32 %139, %140, !llfi_index !319
  br i1 %141, label %142, label %342, !llfi_index !320

; <label>:142                                     ; preds = %138
  store i32 0, i32* %iy, align 4, !llfi_index !321
  br label %143, !llfi_index !322

; <label>:143                                     ; preds = %335, %142
  %144 = load i32* %iy, align 4, !llfi_index !323
  %145 = load i32* %2, align 4, !llfi_index !324
  %146 = icmp slt i32 %144, %145, !llfi_index !325
  br i1 %146, label %147, label %338, !llfi_index !326

; <label>:147                                     ; preds = %143
  store i32 0, i32* %ix, align 4, !llfi_index !327
  br label %148, !llfi_index !328

; <label>:148                                     ; preds = %331, %147
  %149 = load i32* %ix, align 4, !llfi_index !329
  %150 = load i32* %1, align 4, !llfi_index !330
  %151 = icmp slt i32 %149, %150, !llfi_index !331
  br i1 %151, label %152, label %334, !llfi_index !332

; <label>:152                                     ; preds = %148
  %153 = load i32* %iz, align 4, !llfi_index !333
  %154 = load i32* %1, align 4, !llfi_index !334
  %155 = mul nsw i32 %153, %154, !llfi_index !335
  %156 = load i32* %2, align 4, !llfi_index !336
  %157 = mul nsw i32 %155, %156, !llfi_index !337
  %158 = load i32* %iy, align 4, !llfi_index !338
  %159 = load i32* %1, align 4, !llfi_index !339
  %160 = mul nsw i32 %158, %159, !llfi_index !340
  %161 = add nsw i32 %157, %160, !llfi_index !341
  %162 = load i32* %ix, align 4, !llfi_index !342
  %163 = add nsw i32 %161, %162, !llfi_index !343
  store i32 %163, i32* %curlocalrow, align 4, !llfi_index !344
  %164 = load i32* %start_row, align 4, !llfi_index !345
  %165 = load i32* %iz, align 4, !llfi_index !346
  %166 = load i32* %1, align 4, !llfi_index !347
  %167 = mul nsw i32 %165, %166, !llfi_index !348
  %168 = load i32* %2, align 4, !llfi_index !349
  %169 = mul nsw i32 %167, %168, !llfi_index !350
  %170 = add nsw i32 %164, %169, !llfi_index !351
  %171 = load i32* %iy, align 4, !llfi_index !352
  %172 = load i32* %1, align 4, !llfi_index !353
  %173 = mul nsw i32 %171, %172, !llfi_index !354
  %174 = add nsw i32 %170, %173, !llfi_index !355
  %175 = load i32* %ix, align 4, !llfi_index !356
  %176 = add nsw i32 %174, %175, !llfi_index !357
  store i32 %176, i32* %currow, align 4, !llfi_index !358
  store i32 0, i32* %nnzrow, align 4, !llfi_index !359
  %177 = load double** %curvalptr, align 8, !llfi_index !360
  %178 = load i32* %curlocalrow, align 4, !llfi_index !361
  %179 = sext i32 %178 to i64, !llfi_index !362
  %180 = load %struct.HPC_Sparse_Matrix_STRUCT*** %4, align 8, !llfi_index !363
  %181 = load %struct.HPC_Sparse_Matrix_STRUCT** %180, align 8, !llfi_index !364
  %182 = getelementptr inbounds %struct.HPC_Sparse_Matrix_STRUCT* %181, i32 0, i32 9, !llfi_index !365
  %183 = load double*** %182, align 8, !llfi_index !366
  %184 = getelementptr inbounds double** %183, i64 %179, !llfi_index !367
  store double* %177, double** %184, align 8, !llfi_index !368
  %185 = load i32** %curindptr, align 8, !llfi_index !369
  %186 = load i32* %curlocalrow, align 4, !llfi_index !370
  %187 = sext i32 %186 to i64, !llfi_index !371
  %188 = load %struct.HPC_Sparse_Matrix_STRUCT*** %4, align 8, !llfi_index !372
  %189 = load %struct.HPC_Sparse_Matrix_STRUCT** %188, align 8, !llfi_index !373
  %190 = getelementptr inbounds %struct.HPC_Sparse_Matrix_STRUCT* %189, i32 0, i32 10, !llfi_index !374
  %191 = load i32*** %190, align 8, !llfi_index !375
  %192 = getelementptr inbounds i32** %191, i64 %187, !llfi_index !376
  store i32* %185, i32** %192, align 8, !llfi_index !377
  store i32 -1, i32* %sz, align 4, !llfi_index !378
  br label %193, !llfi_index !379

; <label>:193                                     ; preds = %296, %152
  %194 = load i32* %sz, align 4, !llfi_index !380
  %195 = icmp sle i32 %194, 1, !llfi_index !381
  br i1 %195, label %196, label %299, !llfi_index !382

; <label>:196                                     ; preds = %193
  store i32 -1, i32* %sy, align 4, !llfi_index !383
  br label %197, !llfi_index !384

; <label>:197                                     ; preds = %292, %196
  %198 = load i32* %sy, align 4, !llfi_index !385
  %199 = icmp sle i32 %198, 1, !llfi_index !386
  br i1 %199, label %200, label %295, !llfi_index !387

; <label>:200                                     ; preds = %197
  store i32 -1, i32* %sx, align 4, !llfi_index !388
  br label %201, !llfi_index !389

; <label>:201                                     ; preds = %288, %200
  %202 = load i32* %sx, align 4, !llfi_index !390
  %203 = icmp sle i32 %202, 1, !llfi_index !391
  br i1 %203, label %204, label %291, !llfi_index !392

; <label>:204                                     ; preds = %201
  %205 = load i32* %currow, align 4, !llfi_index !393
  %206 = load i32* %sz, align 4, !llfi_index !394
  %207 = load i32* %1, align 4, !llfi_index !395
  %208 = mul nsw i32 %206, %207, !llfi_index !396
  %209 = load i32* %2, align 4, !llfi_index !397
  %210 = mul nsw i32 %208, %209, !llfi_index !398
  %211 = add nsw i32 %205, %210, !llfi_index !399
  %212 = load i32* %sy, align 4, !llfi_index !400
  %213 = load i32* %1, align 4, !llfi_index !401
  %214 = mul nsw i32 %212, %213, !llfi_index !402
  %215 = add nsw i32 %211, %214, !llfi_index !403
  %216 = load i32* %sx, align 4, !llfi_index !404
  %217 = add nsw i32 %215, %216, !llfi_index !405
  store i32 %217, i32* %curcol, align 4, !llfi_index !406
  %218 = load i32* %ix, align 4, !llfi_index !407
  %219 = load i32* %sx, align 4, !llfi_index !408
  %220 = add nsw i32 %218, %219, !llfi_index !409
  %221 = icmp sge i32 %220, 0, !llfi_index !410
  br i1 %221, label %222, label %287, !llfi_index !411

; <label>:222                                     ; preds = %204
  %223 = load i32* %ix, align 4, !llfi_index !412
  %224 = load i32* %sx, align 4, !llfi_index !413
  %225 = add nsw i32 %223, %224, !llfi_index !414
  %226 = load i32* %1, align 4, !llfi_index !415
  %227 = icmp slt i32 %225, %226, !llfi_index !416
  br i1 %227, label %228, label %287, !llfi_index !417

; <label>:228                                     ; preds = %222
  %229 = load i32* %iy, align 4, !llfi_index !418
  %230 = load i32* %sy, align 4, !llfi_index !419
  %231 = add nsw i32 %229, %230, !llfi_index !420
  %232 = icmp sge i32 %231, 0, !llfi_index !421
  br i1 %232, label %233, label %287, !llfi_index !422

; <label>:233                                     ; preds = %228
  %234 = load i32* %iy, align 4, !llfi_index !423
  %235 = load i32* %sy, align 4, !llfi_index !424
  %236 = add nsw i32 %234, %235, !llfi_index !425
  %237 = load i32* %2, align 4, !llfi_index !426
  %238 = icmp slt i32 %236, %237, !llfi_index !427
  br i1 %238, label %239, label %287, !llfi_index !428

; <label>:239                                     ; preds = %233
  %240 = load i32* %curcol, align 4, !llfi_index !429
  %241 = icmp sge i32 %240, 0, !llfi_index !430
  br i1 %241, label %242, label %287, !llfi_index !431

; <label>:242                                     ; preds = %239
  %243 = load i32* %curcol, align 4, !llfi_index !432
  %244 = load i32* %total_nrow, align 4, !llfi_index !433
  %245 = icmp slt i32 %243, %244, !llfi_index !434
  br i1 %245, label %246, label %287, !llfi_index !435

; <label>:246                                     ; preds = %242
  %247 = load i8* %use_7pt_stencil, align 1, !llfi_index !436
  %248 = trunc i8 %247 to i1, !llfi_index !437
  br i1 %248, label %249, label %262, !llfi_index !438

; <label>:249                                     ; preds = %246
  %250 = load i32* %sz, align 4, !llfi_index !439
  %251 = load i32* %sz, align 4, !llfi_index !440
  %252 = mul nsw i32 %250, %251, !llfi_index !441
  %253 = load i32* %sy, align 4, !llfi_index !442
  %254 = load i32* %sy, align 4, !llfi_index !443
  %255 = mul nsw i32 %253, %254, !llfi_index !444
  %256 = add nsw i32 %252, %255, !llfi_index !445
  %257 = load i32* %sx, align 4, !llfi_index !446
  %258 = load i32* %sx, align 4, !llfi_index !447
  %259 = mul nsw i32 %257, %258, !llfi_index !448
  %260 = add nsw i32 %256, %259, !llfi_index !449
  %261 = icmp sle i32 %260, 1, !llfi_index !450
  br i1 %261, label %262, label %286, !llfi_index !451

; <label>:262                                     ; preds = %249, %246
  %263 = load i32* %curcol, align 4, !llfi_index !452
  %264 = load i32* %currow, align 4, !llfi_index !453
  %265 = icmp eq i32 %263, %264, !llfi_index !454
  br i1 %265, label %266, label %277, !llfi_index !455

; <label>:266                                     ; preds = %262
  %267 = load double** %curvalptr, align 8, !llfi_index !456
  %268 = load i32* %curlocalrow, align 4, !llfi_index !457
  %269 = sext i32 %268 to i64, !llfi_index !458
  %270 = load %struct.HPC_Sparse_Matrix_STRUCT*** %4, align 8, !llfi_index !459
  %271 = load %struct.HPC_Sparse_Matrix_STRUCT** %270, align 8, !llfi_index !460
  %272 = getelementptr inbounds %struct.HPC_Sparse_Matrix_STRUCT* %271, i32 0, i32 11, !llfi_index !461
  %273 = load double*** %272, align 8, !llfi_index !462
  %274 = getelementptr inbounds double** %273, i64 %269, !llfi_index !463
  store double* %267, double** %274, align 8, !llfi_index !464
  %275 = load double** %curvalptr, align 8, !llfi_index !465
  %276 = getelementptr inbounds double* %275, i32 1, !llfi_index !466
  store double* %276, double** %curvalptr, align 8, !llfi_index !467
  store double 2.700000e+01, double* %275, align 8, !llfi_index !468
  br label %280, !llfi_index !469

; <label>:277                                     ; preds = %262
  %278 = load double** %curvalptr, align 8, !llfi_index !470
  %279 = getelementptr inbounds double* %278, i32 1, !llfi_index !471
  store double* %279, double** %curvalptr, align 8, !llfi_index !472
  store double -1.000000e+00, double* %278, align 8, !llfi_index !473
  br label %280, !llfi_index !474

; <label>:280                                     ; preds = %277, %266
  %281 = load i32* %curcol, align 4, !llfi_index !475
  %282 = load i32** %curindptr, align 8, !llfi_index !476
  %283 = getelementptr inbounds i32* %282, i32 1, !llfi_index !477
  store i32* %283, i32** %curindptr, align 8, !llfi_index !478
  store i32 %281, i32* %282, align 4, !llfi_index !479
  %284 = load i32* %nnzrow, align 4, !llfi_index !480
  %285 = add nsw i32 %284, 1, !llfi_index !481
  store i32 %285, i32* %nnzrow, align 4, !llfi_index !482
  br label %286, !llfi_index !483

; <label>:286                                     ; preds = %280, %249
  br label %287, !llfi_index !484

; <label>:287                                     ; preds = %286, %242, %239, %233, %228, %222, %204
  br label %288, !llfi_index !485

; <label>:288                                     ; preds = %287
  %289 = load i32* %sx, align 4, !llfi_index !486
  %290 = add nsw i32 %289, 1, !llfi_index !487
  store i32 %290, i32* %sx, align 4, !llfi_index !488
  br label %201, !llfi_index !489

; <label>:291                                     ; preds = %201
  br label %292, !llfi_index !490

; <label>:292                                     ; preds = %291
  %293 = load i32* %sy, align 4, !llfi_index !491
  %294 = add nsw i32 %293, 1, !llfi_index !492
  store i32 %294, i32* %sy, align 4, !llfi_index !493
  br label %197, !llfi_index !494

; <label>:295                                     ; preds = %197
  br label %296, !llfi_index !495

; <label>:296                                     ; preds = %295
  %297 = load i32* %sz, align 4, !llfi_index !496
  %298 = add nsw i32 %297, 1, !llfi_index !497
  store i32 %298, i32* %sz, align 4, !llfi_index !498
  br label %193, !llfi_index !499

; <label>:299                                     ; preds = %193
  %300 = load i32* %nnzrow, align 4, !llfi_index !500
  %301 = load i32* %curlocalrow, align 4, !llfi_index !501
  %302 = sext i32 %301 to i64, !llfi_index !502
  %303 = load %struct.HPC_Sparse_Matrix_STRUCT*** %4, align 8, !llfi_index !503
  %304 = load %struct.HPC_Sparse_Matrix_STRUCT** %303, align 8, !llfi_index !504
  %305 = getelementptr inbounds %struct.HPC_Sparse_Matrix_STRUCT* %304, i32 0, i32 8, !llfi_index !505
  %306 = load i32** %305, align 8, !llfi_index !506
  %307 = getelementptr inbounds i32* %306, i64 %302, !llfi_index !507
  store i32 %300, i32* %307, align 4, !llfi_index !508
  %308 = load i32* %nnzrow, align 4, !llfi_index !509
  %309 = sext i32 %308 to i64, !llfi_index !510
  %310 = load i64* %nnzglobal, align 8, !llfi_index !511
  %311 = add nsw i64 %310, %309, !llfi_index !512
  store i64 %311, i64* %nnzglobal, align 8, !llfi_index !513
  %312 = load i32* %curlocalrow, align 4, !llfi_index !514
  %313 = sext i32 %312 to i64, !llfi_index !515
  %314 = load double*** %5, align 8, !llfi_index !516
  %315 = load double** %314, align 8, !llfi_index !517
  %316 = getelementptr inbounds double* %315, i64 %313, !llfi_index !518
  store double 0.000000e+00, double* %316, align 8, !llfi_index !519
  %317 = load i32* %nnzrow, align 4, !llfi_index !520
  %318 = sub nsw i32 %317, 1, !llfi_index !521
  %319 = sitofp i32 %318 to double, !llfi_index !522
  %320 = fsub double 2.700000e+01, %319, !llfi_index !523
  %321 = load i32* %curlocalrow, align 4, !llfi_index !524
  %322 = sext i32 %321 to i64, !llfi_index !525
  %323 = load double*** %6, align 8, !llfi_index !526
  %324 = load double** %323, align 8, !llfi_index !527
  %325 = getelementptr inbounds double* %324, i64 %322, !llfi_index !528
  store double %320, double* %325, align 8, !llfi_index !529
  %326 = load i32* %curlocalrow, align 4, !llfi_index !530
  %327 = sext i32 %326 to i64, !llfi_index !531
  %328 = load double*** %7, align 8, !llfi_index !532
  %329 = load double** %328, align 8, !llfi_index !533
  %330 = getelementptr inbounds double* %329, i64 %327, !llfi_index !534
  store double 1.000000e+00, double* %330, align 8, !llfi_index !535
  br label %331, !llfi_index !536

; <label>:331                                     ; preds = %299
  %332 = load i32* %ix, align 4, !llfi_index !537
  %333 = add nsw i32 %332, 1, !llfi_index !538
  store i32 %333, i32* %ix, align 4, !llfi_index !539
  br label %148, !llfi_index !540

; <label>:334                                     ; preds = %148
  br label %335, !llfi_index !541

; <label>:335                                     ; preds = %334
  %336 = load i32* %iy, align 4, !llfi_index !542
  %337 = add nsw i32 %336, 1, !llfi_index !543
  store i32 %337, i32* %iy, align 4, !llfi_index !544
  br label %143, !llfi_index !545

; <label>:338                                     ; preds = %143
  br label %339, !llfi_index !546

; <label>:339                                     ; preds = %338
  %340 = load i32* %iz, align 4, !llfi_index !547
  %341 = add nsw i32 %340, 1, !llfi_index !548
  store i32 %341, i32* %iz, align 4, !llfi_index !549
  br label %138, !llfi_index !550

; <label>:342                                     ; preds = %138
  %343 = load i32* %debug, align 4, !llfi_index !551
  %344 = icmp ne i32 %343, 0, !llfi_index !552
  br i1 %344, label %345, label %355, !llfi_index !553

; <label>:345                                     ; preds = %342
  %346 = call %"class.std::basic_ostream"* @_ZStlsISt11char_traitsIcEERSt13basic_ostreamIcT_ES5_PKc(%"class.std::basic_ostream"* @_ZSt4cout, i8* getelementptr inbounds ([9 x i8]* @.str29, i32 0, i32 0)), !llfi_index !554
  %347 = load i32* %rank, align 4, !llfi_index !555
  %348 = call %"class.std::basic_ostream"* @_ZNSolsEi(%"class.std::basic_ostream"* %346, i32 %347), !llfi_index !556
  %349 = call %"class.std::basic_ostream"* @_ZStlsISt11char_traitsIcEERSt13basic_ostreamIcT_ES5_PKc(%"class.std::basic_ostream"* %348, i8* getelementptr inbounds ([5 x i8]* @.str310, i32 0, i32 0)), !llfi_index !557
  %350 = load i32* %size, align 4, !llfi_index !558
  %351 = call %"class.std::basic_ostream"* @_ZNSolsEi(%"class.std::basic_ostream"* %349, i32 %350), !llfi_index !559
  %352 = call %"class.std::basic_ostream"* @_ZStlsISt11char_traitsIcEERSt13basic_ostreamIcT_ES5_PKc(%"class.std::basic_ostream"* %351, i8* getelementptr inbounds ([6 x i8]* @.str411, i32 0, i32 0)), !llfi_index !560
  %353 = load i32* %local_nrow, align 4, !llfi_index !561
  %354 = call %"class.std::basic_ostream"* @_ZNSolsEi(%"class.std::basic_ostream"* %352, i32 %353), !llfi_index !562
  br label %355, !llfi_index !563

; <label>:355                                     ; preds = %345, %342
  %356 = load i32* %debug, align 4, !llfi_index !564
  %357 = icmp ne i32 %356, 0, !llfi_index !565
  br i1 %357, label %358, label %366, !llfi_index !566

; <label>:358                                     ; preds = %355
  %359 = call %"class.std::basic_ostream"* @_ZStlsISt11char_traitsIcEERSt13basic_ostreamIcT_ES5_PKc(%"class.std::basic_ostream"* @_ZSt4cout, i8* getelementptr inbounds ([20 x i8]* @.str512, i32 0, i32 0)), !llfi_index !567
  %360 = load i32* %start_row, align 4, !llfi_index !568
  %361 = call %"class.std::basic_ostream"* @_ZNSolsEi(%"class.std::basic_ostream"* %359, i32 %360), !llfi_index !569
  %362 = call %"class.std::basic_ostream"* @_ZStlsISt11char_traitsIcEERSt13basic_ostreamIcT_ES5_PKc(%"class.std::basic_ostream"* %361, i8* getelementptr inbounds ([10 x i8]* @.str613, i32 0, i32 0)), !llfi_index !570
  %363 = load i32* %stop_row, align 4, !llfi_index !571
  %364 = call %"class.std::basic_ostream"* @_ZNSolsEi(%"class.std::basic_ostream"* %362, i32 %363), !llfi_index !572
  %365 = call %"class.std::basic_ostream"* @_ZNSolsEPFRSoS_E(%"class.std::basic_ostream"* %364, %"class.std::basic_ostream"* (%"class.std::basic_ostream"*)* @_ZSt4endlIcSt11char_traitsIcEERSt13basic_ostreamIT_T0_ES6_), !llfi_index !573
  br label %366, !llfi_index !574

; <label>:366                                     ; preds = %358, %355
  %367 = load i32* %debug, align 4, !llfi_index !575
  %368 = icmp ne i32 %367, 0, !llfi_index !576
  br i1 %368, label %369, label %381, !llfi_index !577

; <label>:369                                     ; preds = %366
  %370 = call %"class.std::basic_ostream"* @_ZStlsISt11char_traitsIcEERSt13basic_ostreamIcT_ES5_PKc(%"class.std::basic_ostream"* @_ZSt4cout, i8* getelementptr inbounds ([9 x i8]* @.str29, i32 0, i32 0)), !llfi_index !578
  %371 = load i32* %rank, align 4, !llfi_index !579
  %372 = call %"class.std::basic_ostream"* @_ZNSolsEi(%"class.std::basic_ostream"* %370, i32 %371), !llfi_index !580
  %373 = call %"class.std::basic_ostream"* @_ZStlsISt11char_traitsIcEERSt13basic_ostreamIcT_ES5_PKc(%"class.std::basic_ostream"* %372, i8* getelementptr inbounds ([5 x i8]* @.str310, i32 0, i32 0)), !llfi_index !581
  %374 = load i32* %size, align 4, !llfi_index !582
  %375 = call %"class.std::basic_ostream"* @_ZNSolsEi(%"class.std::basic_ostream"* %373, i32 %374), !llfi_index !583
  %376 = call %"class.std::basic_ostream"* @_ZStlsISt11char_traitsIcEERSt13basic_ostreamIcT_ES5_PKc(%"class.std::basic_ostream"* %375, i8* getelementptr inbounds ([6 x i8]* @.str411, i32 0, i32 0)), !llfi_index !584
  %377 = load i32* %local_nnz, align 4, !llfi_index !585
  %378 = call %"class.std::basic_ostream"* @_ZNSolsEi(%"class.std::basic_ostream"* %376, i32 %377), !llfi_index !586
  %379 = call %"class.std::basic_ostream"* @_ZStlsISt11char_traitsIcEERSt13basic_ostreamIcT_ES5_PKc(%"class.std::basic_ostream"* %378, i8* getelementptr inbounds ([11 x i8]* @.str714, i32 0, i32 0)), !llfi_index !587
  %380 = call %"class.std::basic_ostream"* @_ZNSolsEPFRSoS_E(%"class.std::basic_ostream"* %379, %"class.std::basic_ostream"* (%"class.std::basic_ostream"*)* @_ZSt4endlIcSt11char_traitsIcEERSt13basic_ostreamIT_T0_ES6_), !llfi_index !588
  br label %381, !llfi_index !589

; <label>:381                                     ; preds = %369, %366
  %382 = load i32* %start_row, align 4, !llfi_index !590
  %383 = load %struct.HPC_Sparse_Matrix_STRUCT*** %4, align 8, !llfi_index !591
  %384 = load %struct.HPC_Sparse_Matrix_STRUCT** %383, align 8, !llfi_index !592
  %385 = getelementptr inbounds %struct.HPC_Sparse_Matrix_STRUCT* %384, i32 0, i32 1, !llfi_index !593
  store i32 %382, i32* %385, align 4, !llfi_index !594
  %386 = load i32* %stop_row, align 4, !llfi_index !595
  %387 = load %struct.HPC_Sparse_Matrix_STRUCT*** %4, align 8, !llfi_index !596
  %388 = load %struct.HPC_Sparse_Matrix_STRUCT** %387, align 8, !llfi_index !597
  %389 = getelementptr inbounds %struct.HPC_Sparse_Matrix_STRUCT* %388, i32 0, i32 2, !llfi_index !598
  store i32 %386, i32* %389, align 4, !llfi_index !599
  %390 = load i32* %total_nrow, align 4, !llfi_index !600
  %391 = load %struct.HPC_Sparse_Matrix_STRUCT*** %4, align 8, !llfi_index !601
  %392 = load %struct.HPC_Sparse_Matrix_STRUCT** %391, align 8, !llfi_index !602
  %393 = getelementptr inbounds %struct.HPC_Sparse_Matrix_STRUCT* %392, i32 0, i32 3, !llfi_index !603
  store i32 %390, i32* %393, align 4, !llfi_index !604
  %394 = load i64* %total_nnz, align 8, !llfi_index !605
  %395 = load %struct.HPC_Sparse_Matrix_STRUCT*** %4, align 8, !llfi_index !606
  %396 = load %struct.HPC_Sparse_Matrix_STRUCT** %395, align 8, !llfi_index !607
  %397 = getelementptr inbounds %struct.HPC_Sparse_Matrix_STRUCT* %396, i32 0, i32 4, !llfi_index !608
  store i64 %394, i64* %397, align 8, !llfi_index !609
  %398 = load i32* %local_nrow, align 4, !llfi_index !610
  %399 = load %struct.HPC_Sparse_Matrix_STRUCT*** %4, align 8, !llfi_index !611
  %400 = load %struct.HPC_Sparse_Matrix_STRUCT** %399, align 8, !llfi_index !612
  %401 = getelementptr inbounds %struct.HPC_Sparse_Matrix_STRUCT* %400, i32 0, i32 5, !llfi_index !613
  store i32 %398, i32* %401, align 4, !llfi_index !614
  %402 = load i32* %local_nrow, align 4, !llfi_index !615
  %403 = load %struct.HPC_Sparse_Matrix_STRUCT*** %4, align 8, !llfi_index !616
  %404 = load %struct.HPC_Sparse_Matrix_STRUCT** %403, align 8, !llfi_index !617
  %405 = getelementptr inbounds %struct.HPC_Sparse_Matrix_STRUCT* %404, i32 0, i32 6, !llfi_index !618
  store i32 %402, i32* %405, align 4, !llfi_index !619
  %406 = load i32* %local_nnz, align 4, !llfi_index !620
  %407 = load %struct.HPC_Sparse_Matrix_STRUCT*** %4, align 8, !llfi_index !621
  %408 = load %struct.HPC_Sparse_Matrix_STRUCT** %407, align 8, !llfi_index !622
  %409 = getelementptr inbounds %struct.HPC_Sparse_Matrix_STRUCT* %408, i32 0, i32 7, !llfi_index !623
  store i32 %406, i32* %409, align 4, !llfi_index !624
  ret void, !llfi_index !625
}

; Function Attrs: nobuiltin
declare noalias i8* @_Znwm(i64) #5

; Function Attrs: noreturn nounwind
declare void @__assert_fail(i8*, i8*, i32, i8*) #3

; Function Attrs: nounwind readnone
declare { i64, i1 } @llvm.umul.with.overflow.i64(i64, i64) #6

; Function Attrs: nobuiltin
declare noalias i8* @_Znam(i64) #5

declare %"class.std::basic_ostream"* @_ZNSolsEi(%"class.std::basic_ostream"*, i32) #0

define internal void @_GLOBAL__I_a18() section ".text.startup" {
  call void @__cxx_global_var_init19(), !llfi_index !626
  ret void, !llfi_index !627
}

define internal void @__cxx_global_var_init19() section ".text.startup" {
  call void @_ZNSt8ios_base4InitC1Ev(%"class.std::ios_base::Init"* @_ZStL8__ioinit1), !llfi_index !628
  %1 = call i32 @__cxa_atexit(void (i8*)* bitcast (void (%"class.std::ios_base::Init"*)* @_ZNSt8ios_base4InitD1Ev to void (i8*)*), i8* getelementptr inbounds (%"class.std::ios_base::Init"* @_ZStL8__ioinit1, i32 0, i32 0), i8* @__dso_handle) #1, !llfi_index !629
  ret void, !llfi_index !630
}

; Function Attrs: uwtable
define void @_Z12read_HPC_rowPcPP24HPC_Sparse_Matrix_STRUCTPPdS4_S4_(i8* %data_file, %struct.HPC_Sparse_Matrix_STRUCT** %A, double** %x, double** %b, double** %xexact) #2 {
  %1 = alloca i8*, align 8, !llfi_index !631
  %2 = alloca %struct.HPC_Sparse_Matrix_STRUCT**, align 8, !llfi_index !632
  %3 = alloca double**, align 8, !llfi_index !633
  %4 = alloca double**, align 8, !llfi_index !634
  %5 = alloca double**, align 8, !llfi_index !635
  %in_file = alloca %struct._IO_FILE*, align 8, !llfi_index !636
  %i = alloca i32, align 4, !llfi_index !637
  %j = alloca i32, align 4, !llfi_index !638
  %total_nrow = alloca i32, align 4, !llfi_index !639
  %total_nnz = alloca i64, align 8, !llfi_index !640
  %l = alloca i32, align 4, !llfi_index !641
  %lp = alloca i32*, align 8, !llfi_index !642
  %v = alloca double, align 8, !llfi_index !643
  %vp = alloca double*, align 8, !llfi_index !644
  %debug = alloca i32, align 4, !llfi_index !645
  %size = alloca i32, align 4, !llfi_index !646
  %rank = alloca i32, align 4, !llfi_index !647
  %n = alloca i32, align 4, !llfi_index !648
  %chunksize = alloca i32, align 4, !llfi_index !649
  %remainder = alloca i32, align 4, !llfi_index !650
  %mp = alloca i32, align 4, !llfi_index !651
  %local_nrow = alloca i32, align 4, !llfi_index !652
  %off = alloca i32, align 4, !llfi_index !653
  %start_row = alloca i32, align 4, !llfi_index !654
  %stop_row = alloca i32, align 4, !llfi_index !655
  %nnz_in_row = alloca i32*, align 8, !llfi_index !656
  %ptr_to_vals_in_row = alloca double**, align 8, !llfi_index !657
  %ptr_to_inds_in_row = alloca i32**, align 8, !llfi_index !658
  %ptr_to_diags = alloca double**, align 8, !llfi_index !659
  %local_nnz = alloca i32, align 4, !llfi_index !660
  %cur_local_row = alloca i32, align 4, !llfi_index !661
  %list_of_vals = alloca double*, align 8, !llfi_index !662
  %list_of_inds = alloca i32*, align 8, !llfi_index !663
  %cur_nnz = alloca i32, align 4, !llfi_index !664
  %xt = alloca double, align 8, !llfi_index !665
  %bt = alloca double, align 8, !llfi_index !666
  %xxt = alloca double, align 8, !llfi_index !667
  store i8* %data_file, i8** %1, align 8, !llfi_index !668
  store %struct.HPC_Sparse_Matrix_STRUCT** %A, %struct.HPC_Sparse_Matrix_STRUCT*** %2, align 8, !llfi_index !669
  store double** %x, double*** %3, align 8, !llfi_index !670
  store double** %b, double*** %4, align 8, !llfi_index !671
  store double** %xexact, double*** %5, align 8, !llfi_index !672
  store i32* %l, i32** %lp, align 8, !llfi_index !673
  store double* %v, double** %vp, align 8, !llfi_index !674
  store i32 0, i32* %debug, align 4, !llfi_index !675
  %6 = load i8** %1, align 8, !llfi_index !676
  %7 = call i32 (i8*, ...)* @printf(i8* getelementptr inbounds ([32 x i8]* @.str21, i32 0, i32 0), i8* %6), !llfi_index !677
  %8 = load i8** %1, align 8, !llfi_index !678
  %9 = call %struct._IO_FILE* @fopen(i8* %8, i8* getelementptr inbounds ([2 x i8]* @.str122, i32 0, i32 0)), !llfi_index !679
  store %struct._IO_FILE* %9, %struct._IO_FILE** %in_file, align 8, !llfi_index !680
  %10 = load %struct._IO_FILE** %in_file, align 8, !llfi_index !681
  %11 = icmp eq %struct._IO_FILE* %10, null, !llfi_index !682
  br i1 %11, label %12, label %15, !llfi_index !683

; <label>:12                                      ; preds = %0
  %13 = load i8** %1, align 8, !llfi_index !684
  %14 = call i32 (i8*, ...)* @printf(i8* getelementptr inbounds ([29 x i8]* @.str223, i32 0, i32 0), i8* %13), !llfi_index !685
  call void @exit(i32 1) #10, !llfi_index !686
  unreachable, !llfi_index !687

; <label>:15                                      ; preds = %0
  %16 = load %struct._IO_FILE** %in_file, align 8, !llfi_index !688
  %17 = call i32 (%struct._IO_FILE*, i8*, ...)* @fscanf(%struct._IO_FILE* %16, i8* getelementptr inbounds ([3 x i8]* @.str324, i32 0, i32 0), i32* %total_nrow), !llfi_index !689
  %18 = load %struct._IO_FILE** %in_file, align 8, !llfi_index !690
  %19 = call i32 (%struct._IO_FILE*, i8*, ...)* @fscanf(%struct._IO_FILE* %18, i8* getelementptr inbounds ([5 x i8]* @.str425, i32 0, i32 0), i64* %total_nnz), !llfi_index !691
  store i32 1, i32* %size, align 4, !llfi_index !692
  store i32 0, i32* %rank, align 4, !llfi_index !693
  %20 = load i32* %total_nrow, align 4, !llfi_index !694
  store i32 %20, i32* %n, align 4, !llfi_index !695
  %21 = load i32* %n, align 4, !llfi_index !696
  %22 = load i32* %size, align 4, !llfi_index !697
  %23 = sdiv i32 %21, %22, !llfi_index !698
  store i32 %23, i32* %chunksize, align 4, !llfi_index !699
  %24 = load i32* %n, align 4, !llfi_index !700
  %25 = load i32* %size, align 4, !llfi_index !701
  %26 = srem i32 %24, %25, !llfi_index !702
  store i32 %26, i32* %remainder, align 4, !llfi_index !703
  %27 = load i32* %chunksize, align 4, !llfi_index !704
  store i32 %27, i32* %mp, align 4, !llfi_index !705
  %28 = load i32* %rank, align 4, !llfi_index !706
  %29 = load i32* %remainder, align 4, !llfi_index !707
  %30 = icmp slt i32 %28, %29, !llfi_index !708
  br i1 %30, label %31, label %34, !llfi_index !709

; <label>:31                                      ; preds = %15
  %32 = load i32* %mp, align 4, !llfi_index !710
  %33 = add nsw i32 %32, 1, !llfi_index !711
  store i32 %33, i32* %mp, align 4, !llfi_index !712
  br label %34, !llfi_index !713

; <label>:34                                      ; preds = %31, %15
  %35 = load i32* %mp, align 4, !llfi_index !714
  store i32 %35, i32* %local_nrow, align 4, !llfi_index !715
  %36 = load i32* %rank, align 4, !llfi_index !716
  %37 = load i32* %chunksize, align 4, !llfi_index !717
  %38 = add nsw i32 %37, 1, !llfi_index !718
  %39 = mul nsw i32 %36, %38, !llfi_index !719
  store i32 %39, i32* %off, align 4, !llfi_index !720
  %40 = load i32* %rank, align 4, !llfi_index !721
  %41 = load i32* %remainder, align 4, !llfi_index !722
  %42 = icmp sgt i32 %40, %41, !llfi_index !723
  br i1 %42, label %43, label %49, !llfi_index !724

; <label>:43                                      ; preds = %34
  %44 = load i32* %rank, align 4, !llfi_index !725
  %45 = load i32* %remainder, align 4, !llfi_index !726
  %46 = sub nsw i32 %44, %45, !llfi_index !727
  %47 = load i32* %off, align 4, !llfi_index !728
  %48 = sub nsw i32 %47, %46, !llfi_index !729
  store i32 %48, i32* %off, align 4, !llfi_index !730
  br label %49, !llfi_index !731

; <label>:49                                      ; preds = %43, %34
  %50 = load i32* %off, align 4, !llfi_index !732
  store i32 %50, i32* %start_row, align 4, !llfi_index !733
  %51 = load i32* %off, align 4, !llfi_index !734
  %52 = load i32* %mp, align 4, !llfi_index !735
  %53 = add nsw i32 %51, %52, !llfi_index !736
  %54 = sub nsw i32 %53, 1, !llfi_index !737
  store i32 %54, i32* %stop_row, align 4, !llfi_index !738
  %55 = load i32* %local_nrow, align 4, !llfi_index !739
  %56 = sext i32 %55 to i64, !llfi_index !740
  %57 = call { i64, i1 } @llvm.umul.with.overflow.i64(i64 %56, i64 4), !llfi_index !741
  %58 = extractvalue { i64, i1 } %57, 1, !llfi_index !742
  %59 = extractvalue { i64, i1 } %57, 0, !llfi_index !743
  %60 = select i1 %58, i64 -1, i64 %59, !llfi_index !744
  %61 = call noalias i8* @_Znam(i64 %60) #12, !llfi_index !745
  %62 = bitcast i8* %61 to i32*, !llfi_index !746
  store i32* %62, i32** %nnz_in_row, align 8, !llfi_index !747
  %63 = load i32* %local_nrow, align 4, !llfi_index !748
  %64 = sext i32 %63 to i64, !llfi_index !749
  %65 = call { i64, i1 } @llvm.umul.with.overflow.i64(i64 %64, i64 8), !llfi_index !750
  %66 = extractvalue { i64, i1 } %65, 1, !llfi_index !751
  %67 = extractvalue { i64, i1 } %65, 0, !llfi_index !752
  %68 = select i1 %66, i64 -1, i64 %67, !llfi_index !753
  %69 = call noalias i8* @_Znam(i64 %68) #12, !llfi_index !754
  %70 = bitcast i8* %69 to double**, !llfi_index !755
  store double** %70, double*** %ptr_to_vals_in_row, align 8, !llfi_index !756
  %71 = load i32* %local_nrow, align 4, !llfi_index !757
  %72 = sext i32 %71 to i64, !llfi_index !758
  %73 = call { i64, i1 } @llvm.umul.with.overflow.i64(i64 %72, i64 8), !llfi_index !759
  %74 = extractvalue { i64, i1 } %73, 1, !llfi_index !760
  %75 = extractvalue { i64, i1 } %73, 0, !llfi_index !761
  %76 = select i1 %74, i64 -1, i64 %75, !llfi_index !762
  %77 = call noalias i8* @_Znam(i64 %76) #12, !llfi_index !763
  %78 = bitcast i8* %77 to i32**, !llfi_index !764
  store i32** %78, i32*** %ptr_to_inds_in_row, align 8, !llfi_index !765
  %79 = load i32* %local_nrow, align 4, !llfi_index !766
  %80 = sext i32 %79 to i64, !llfi_index !767
  %81 = call { i64, i1 } @llvm.umul.with.overflow.i64(i64 %80, i64 8), !llfi_index !768
  %82 = extractvalue { i64, i1 } %81, 1, !llfi_index !769
  %83 = extractvalue { i64, i1 } %81, 0, !llfi_index !770
  %84 = select i1 %82, i64 -1, i64 %83, !llfi_index !771
  %85 = call noalias i8* @_Znam(i64 %84) #12, !llfi_index !772
  %86 = bitcast i8* %85 to double**, !llfi_index !773
  store double** %86, double*** %ptr_to_diags, align 8, !llfi_index !774
  %87 = load i32* %local_nrow, align 4, !llfi_index !775
  %88 = sext i32 %87 to i64, !llfi_index !776
  %89 = call { i64, i1 } @llvm.umul.with.overflow.i64(i64 %88, i64 8), !llfi_index !777
  %90 = extractvalue { i64, i1 } %89, 1, !llfi_index !778
  %91 = extractvalue { i64, i1 } %89, 0, !llfi_index !779
  %92 = select i1 %90, i64 -1, i64 %91, !llfi_index !780
  %93 = call noalias i8* @_Znam(i64 %92) #12, !llfi_index !781
  %94 = bitcast i8* %93 to double*, !llfi_index !782
  %95 = load double*** %3, align 8, !llfi_index !783
  store double* %94, double** %95, align 8, !llfi_index !784
  %96 = load i32* %local_nrow, align 4, !llfi_index !785
  %97 = sext i32 %96 to i64, !llfi_index !786
  %98 = call { i64, i1 } @llvm.umul.with.overflow.i64(i64 %97, i64 8), !llfi_index !787
  %99 = extractvalue { i64, i1 } %98, 1, !llfi_index !788
  %100 = extractvalue { i64, i1 } %98, 0, !llfi_index !789
  %101 = select i1 %99, i64 -1, i64 %100, !llfi_index !790
  %102 = call noalias i8* @_Znam(i64 %101) #12, !llfi_index !791
  %103 = bitcast i8* %102 to double*, !llfi_index !792
  %104 = load double*** %4, align 8, !llfi_index !793
  store double* %103, double** %104, align 8, !llfi_index !794
  %105 = load i32* %local_nrow, align 4, !llfi_index !795
  %106 = sext i32 %105 to i64, !llfi_index !796
  %107 = call { i64, i1 } @llvm.umul.with.overflow.i64(i64 %106, i64 8), !llfi_index !797
  %108 = extractvalue { i64, i1 } %107, 1, !llfi_index !798
  %109 = extractvalue { i64, i1 } %107, 0, !llfi_index !799
  %110 = select i1 %108, i64 -1, i64 %109, !llfi_index !800
  %111 = call noalias i8* @_Znam(i64 %110) #12, !llfi_index !801
  %112 = bitcast i8* %111 to double*, !llfi_index !802
  %113 = load double*** %5, align 8, !llfi_index !803
  store double* %112, double** %113, align 8, !llfi_index !804
  store i32 0, i32* %local_nnz, align 4, !llfi_index !805
  store i32 0, i32* %cur_local_row, align 4, !llfi_index !806
  store i32 0, i32* %i, align 4, !llfi_index !807
  br label %114, !llfi_index !808

; <label>:114                                     ; preds = %141, %49
  %115 = load i32* %i, align 4, !llfi_index !809
  %116 = load i32* %total_nrow, align 4, !llfi_index !810
  %117 = icmp slt i32 %115, %116, !llfi_index !811
  br i1 %117, label %118, label %144, !llfi_index !812

; <label>:118                                     ; preds = %114
  %119 = load %struct._IO_FILE** %in_file, align 8, !llfi_index !813
  %120 = load i32** %lp, align 8, !llfi_index !814
  %121 = call i32 (%struct._IO_FILE*, i8*, ...)* @fscanf(%struct._IO_FILE* %119, i8* getelementptr inbounds ([3 x i8]* @.str324, i32 0, i32 0), i32* %120), !llfi_index !815
  %122 = load i32* %start_row, align 4, !llfi_index !816
  %123 = load i32* %i, align 4, !llfi_index !817
  %124 = icmp sle i32 %122, %123, !llfi_index !818
  br i1 %124, label %125, label %140, !llfi_index !819

; <label>:125                                     ; preds = %118
  %126 = load i32* %i, align 4, !llfi_index !820
  %127 = load i32* %stop_row, align 4, !llfi_index !821
  %128 = icmp sle i32 %126, %127, !llfi_index !822
  br i1 %128, label %129, label %140, !llfi_index !823

; <label>:129                                     ; preds = %125
  %130 = load i32* %l, align 4, !llfi_index !824
  %131 = load i32* %local_nnz, align 4, !llfi_index !825
  %132 = add nsw i32 %131, %130, !llfi_index !826
  store i32 %132, i32* %local_nnz, align 4, !llfi_index !827
  %133 = load i32* %l, align 4, !llfi_index !828
  %134 = load i32* %cur_local_row, align 4, !llfi_index !829
  %135 = sext i32 %134 to i64, !llfi_index !830
  %136 = load i32** %nnz_in_row, align 8, !llfi_index !831
  %137 = getelementptr inbounds i32* %136, i64 %135, !llfi_index !832
  store i32 %133, i32* %137, align 4, !llfi_index !833
  %138 = load i32* %cur_local_row, align 4, !llfi_index !834
  %139 = add nsw i32 %138, 1, !llfi_index !835
  store i32 %139, i32* %cur_local_row, align 4, !llfi_index !836
  br label %140, !llfi_index !837

; <label>:140                                     ; preds = %129, %125, %118
  br label %141, !llfi_index !838

; <label>:141                                     ; preds = %140
  %142 = load i32* %i, align 4, !llfi_index !839
  %143 = add nsw i32 %142, 1, !llfi_index !840
  store i32 %143, i32* %i, align 4, !llfi_index !841
  br label %114, !llfi_index !842

; <label>:144                                     ; preds = %114
  %145 = load i32* %cur_local_row, align 4, !llfi_index !843
  %146 = load i32* %local_nrow, align 4, !llfi_index !844
  %147 = icmp eq i32 %145, %146, !llfi_index !845
  br i1 %147, label %148, label %149, !llfi_index !846

; <label>:148                                     ; preds = %144
  br label %151, !llfi_index !847

; <label>:149                                     ; preds = %144
  call void @__assert_fail(i8* getelementptr inbounds ([26 x i8]* @.str526, i32 0, i32 0), i8* getelementptr inbounds ([17 x i8]* @.str627, i32 0, i32 0), i32 123, i8* getelementptr inbounds ([81 x i8]* @__PRETTY_FUNCTION__._Z12read_HPC_rowPcPP24HPC_Sparse_Matrix_STRUCTPPdS4_S4_, i32 0, i32 0)) #10, !llfi_index !848
  unreachable, !llfi_index !849
                                                  ; No predecessors!
  br label %151, !llfi_index !850

; <label>:151                                     ; preds = %150, %148
  %152 = load i32* %local_nnz, align 4, !llfi_index !851
  %153 = sext i32 %152 to i64, !llfi_index !852
  %154 = call { i64, i1 } @llvm.umul.with.overflow.i64(i64 %153, i64 8), !llfi_index !853
  %155 = extractvalue { i64, i1 } %154, 1, !llfi_index !854
  %156 = extractvalue { i64, i1 } %154, 0, !llfi_index !855
  %157 = select i1 %155, i64 -1, i64 %156, !llfi_index !856
  %158 = call noalias i8* @_Znam(i64 %157) #12, !llfi_index !857
  %159 = bitcast i8* %158 to double*, !llfi_index !858
  store double* %159, double** %list_of_vals, align 8, !llfi_index !859
  %160 = load i32* %local_nnz, align 4, !llfi_index !860
  %161 = sext i32 %160 to i64, !llfi_index !861
  %162 = call { i64, i1 } @llvm.umul.with.overflow.i64(i64 %161, i64 4), !llfi_index !862
  %163 = extractvalue { i64, i1 } %162, 1, !llfi_index !863
  %164 = extractvalue { i64, i1 } %162, 0, !llfi_index !864
  %165 = select i1 %163, i64 -1, i64 %164, !llfi_index !865
  %166 = call noalias i8* @_Znam(i64 %165) #12, !llfi_index !866
  %167 = bitcast i8* %166 to i32*, !llfi_index !867
  store i32* %167, i32** %list_of_inds, align 8, !llfi_index !868
  %168 = load double** %list_of_vals, align 8, !llfi_index !869
  %169 = load double*** %ptr_to_vals_in_row, align 8, !llfi_index !870
  %170 = getelementptr inbounds double** %169, i64 0, !llfi_index !871
  store double* %168, double** %170, align 8, !llfi_index !872
  %171 = load i32** %list_of_inds, align 8, !llfi_index !873
  %172 = load i32*** %ptr_to_inds_in_row, align 8, !llfi_index !874
  %173 = getelementptr inbounds i32** %172, i64 0, !llfi_index !875
  store i32* %171, i32** %173, align 8, !llfi_index !876
  store i32 1, i32* %i, align 4, !llfi_index !877
  br label %174, !llfi_index !878

; <label>:174                                     ; preds = %215, %151
  %175 = load i32* %i, align 4, !llfi_index !879
  %176 = load i32* %local_nrow, align 4, !llfi_index !880
  %177 = icmp slt i32 %175, %176, !llfi_index !881
  br i1 %177, label %178, label %218, !llfi_index !882

; <label>:178                                     ; preds = %174
  %179 = load i32* %i, align 4, !llfi_index !883
  %180 = sub nsw i32 %179, 1, !llfi_index !884
  %181 = sext i32 %180 to i64, !llfi_index !885
  %182 = load double*** %ptr_to_vals_in_row, align 8, !llfi_index !886
  %183 = getelementptr inbounds double** %182, i64 %181, !llfi_index !887
  %184 = load double** %183, align 8, !llfi_index !888
  %185 = load i32* %i, align 4, !llfi_index !889
  %186 = sub nsw i32 %185, 1, !llfi_index !890
  %187 = sext i32 %186 to i64, !llfi_index !891
  %188 = load i32** %nnz_in_row, align 8, !llfi_index !892
  %189 = getelementptr inbounds i32* %188, i64 %187, !llfi_index !893
  %190 = load i32* %189, align 4, !llfi_index !894
  %191 = sext i32 %190 to i64, !llfi_index !895
  %192 = getelementptr inbounds double* %184, i64 %191, !llfi_index !896
  %193 = load i32* %i, align 4, !llfi_index !897
  %194 = sext i32 %193 to i64, !llfi_index !898
  %195 = load double*** %ptr_to_vals_in_row, align 8, !llfi_index !899
  %196 = getelementptr inbounds double** %195, i64 %194, !llfi_index !900
  store double* %192, double** %196, align 8, !llfi_index !901
  %197 = load i32* %i, align 4, !llfi_index !902
  %198 = sub nsw i32 %197, 1, !llfi_index !903
  %199 = sext i32 %198 to i64, !llfi_index !904
  %200 = load i32*** %ptr_to_inds_in_row, align 8, !llfi_index !905
  %201 = getelementptr inbounds i32** %200, i64 %199, !llfi_index !906
  %202 = load i32** %201, align 8, !llfi_index !907
  %203 = load i32* %i, align 4, !llfi_index !908
  %204 = sub nsw i32 %203, 1, !llfi_index !909
  %205 = sext i32 %204 to i64, !llfi_index !910
  %206 = load i32** %nnz_in_row, align 8, !llfi_index !911
  %207 = getelementptr inbounds i32* %206, i64 %205, !llfi_index !912
  %208 = load i32* %207, align 4, !llfi_index !913
  %209 = sext i32 %208 to i64, !llfi_index !914
  %210 = getelementptr inbounds i32* %202, i64 %209, !llfi_index !915
  %211 = load i32* %i, align 4, !llfi_index !916
  %212 = sext i32 %211 to i64, !llfi_index !917
  %213 = load i32*** %ptr_to_inds_in_row, align 8, !llfi_index !918
  %214 = getelementptr inbounds i32** %213, i64 %212, !llfi_index !919
  store i32* %210, i32** %214, align 8, !llfi_index !920
  br label %215, !llfi_index !921

; <label>:215                                     ; preds = %178
  %216 = load i32* %i, align 4, !llfi_index !922
  %217 = add nsw i32 %216, 1, !llfi_index !923
  store i32 %217, i32* %i, align 4, !llfi_index !924
  br label %174, !llfi_index !925

; <label>:218                                     ; preds = %174
  store i32 0, i32* %cur_local_row, align 4, !llfi_index !926
  store i32 0, i32* %i, align 4, !llfi_index !927
  br label %219, !llfi_index !928

; <label>:219                                     ; preds = %296, %218
  %220 = load i32* %i, align 4, !llfi_index !929
  %221 = load i32* %total_nrow, align 4, !llfi_index !930
  %222 = icmp slt i32 %220, %221, !llfi_index !931
  br i1 %222, label %223, label %299, !llfi_index !932

; <label>:223                                     ; preds = %219
  %224 = load %struct._IO_FILE** %in_file, align 8, !llfi_index !933
  %225 = call i32 (%struct._IO_FILE*, i8*, ...)* @fscanf(%struct._IO_FILE* %224, i8* getelementptr inbounds ([3 x i8]* @.str324, i32 0, i32 0), i32* %cur_nnz), !llfi_index !934
  %226 = load i32* %start_row, align 4, !llfi_index !935
  %227 = load i32* %i, align 4, !llfi_index !936
  %228 = icmp sle i32 %226, %227, !llfi_index !937
  br i1 %228, label %229, label %281, !llfi_index !938

; <label>:229                                     ; preds = %223
  %230 = load i32* %i, align 4, !llfi_index !939
  %231 = load i32* %stop_row, align 4, !llfi_index !940
  %232 = icmp sle i32 %230, %231, !llfi_index !941
  br i1 %232, label %233, label %281, !llfi_index !942

; <label>:233                                     ; preds = %229
  %234 = load i32* %debug, align 4, !llfi_index !943
  %235 = icmp ne i32 %234, 0, !llfi_index !944
  br i1 %235, label %236, label %247, !llfi_index !945

; <label>:236                                     ; preds = %233
  %237 = call %"class.std::basic_ostream"* @_ZStlsISt11char_traitsIcEERSt13basic_ostreamIcT_ES5_PKc(%"class.std::basic_ostream"* @_ZSt4cout, i8* getelementptr inbounds ([9 x i8]* @.str728, i32 0, i32 0)), !llfi_index !946
  %238 = load i32* %rank, align 4, !llfi_index !947
  %239 = call %"class.std::basic_ostream"* @_ZNSolsEi(%"class.std::basic_ostream"* %237, i32 %238), !llfi_index !948
  %240 = call %"class.std::basic_ostream"* @_ZStlsISt11char_traitsIcEERSt13basic_ostreamIcT_ES5_PKc(%"class.std::basic_ostream"* %239, i8* getelementptr inbounds ([5 x i8]* @.str8, i32 0, i32 0)), !llfi_index !949
  %241 = load i32* %size, align 4, !llfi_index !950
  %242 = call %"class.std::basic_ostream"* @_ZNSolsEi(%"class.std::basic_ostream"* %240, i32 %241), !llfi_index !951
  %243 = call %"class.std::basic_ostream"* @_ZStlsISt11char_traitsIcEERSt13basic_ostreamIcT_ES5_PKc(%"class.std::basic_ostream"* %242, i8* getelementptr inbounds ([14 x i8]* @.str9, i32 0, i32 0)), !llfi_index !952
  %244 = load i32* %i, align 4, !llfi_index !953
  %245 = call %"class.std::basic_ostream"* @_ZNSolsEi(%"class.std::basic_ostream"* %243, i32 %244), !llfi_index !954
  %246 = call %"class.std::basic_ostream"* @_ZNSolsEPFRSoS_E(%"class.std::basic_ostream"* %245, %"class.std::basic_ostream"* (%"class.std::basic_ostream"*)* @_ZSt4endlIcSt11char_traitsIcEERSt13basic_ostreamIT_T0_ES6_), !llfi_index !955
  br label %247, !llfi_index !956

; <label>:247                                     ; preds = %236, %233
  store i32 0, i32* %j, align 4, !llfi_index !957
  br label %248, !llfi_index !958

; <label>:248                                     ; preds = %275, %247
  %249 = load i32* %j, align 4, !llfi_index !959
  %250 = load i32* %cur_nnz, align 4, !llfi_index !960
  %251 = icmp slt i32 %249, %250, !llfi_index !961
  br i1 %251, label %252, label %278, !llfi_index !962

; <label>:252                                     ; preds = %248
  %253 = load %struct._IO_FILE** %in_file, align 8, !llfi_index !963
  %254 = load double** %vp, align 8, !llfi_index !964
  %255 = load i32** %lp, align 8, !llfi_index !965
  %256 = call i32 (%struct._IO_FILE*, i8*, ...)* @fscanf(%struct._IO_FILE* %253, i8* getelementptr inbounds ([7 x i8]* @.str10, i32 0, i32 0), double* %254, i32* %255), !llfi_index !966
  %257 = load double* %v, align 8, !llfi_index !967
  %258 = load i32* %j, align 4, !llfi_index !968
  %259 = sext i32 %258 to i64, !llfi_index !969
  %260 = load i32* %cur_local_row, align 4, !llfi_index !970
  %261 = sext i32 %260 to i64, !llfi_index !971
  %262 = load double*** %ptr_to_vals_in_row, align 8, !llfi_index !972
  %263 = getelementptr inbounds double** %262, i64 %261, !llfi_index !973
  %264 = load double** %263, align 8, !llfi_index !974
  %265 = getelementptr inbounds double* %264, i64 %259, !llfi_index !975
  store double %257, double* %265, align 8, !llfi_index !976
  %266 = load i32* %l, align 4, !llfi_index !977
  %267 = load i32* %j, align 4, !llfi_index !978
  %268 = sext i32 %267 to i64, !llfi_index !979
  %269 = load i32* %cur_local_row, align 4, !llfi_index !980
  %270 = sext i32 %269 to i64, !llfi_index !981
  %271 = load i32*** %ptr_to_inds_in_row, align 8, !llfi_index !982
  %272 = getelementptr inbounds i32** %271, i64 %270, !llfi_index !983
  %273 = load i32** %272, align 8, !llfi_index !984
  %274 = getelementptr inbounds i32* %273, i64 %268, !llfi_index !985
  store i32 %266, i32* %274, align 4, !llfi_index !986
  br label %275, !llfi_index !987

; <label>:275                                     ; preds = %252
  %276 = load i32* %j, align 4, !llfi_index !988
  %277 = add nsw i32 %276, 1, !llfi_index !989
  store i32 %277, i32* %j, align 4, !llfi_index !990
  br label %248, !llfi_index !991

; <label>:278                                     ; preds = %248
  %279 = load i32* %cur_local_row, align 4, !llfi_index !992
  %280 = add nsw i32 %279, 1, !llfi_index !993
  store i32 %280, i32* %cur_local_row, align 4, !llfi_index !994
  br label %295, !llfi_index !995

; <label>:281                                     ; preds = %229, %223
  store i32 0, i32* %j, align 4, !llfi_index !996
  br label %282, !llfi_index !997

; <label>:282                                     ; preds = %291, %281
  %283 = load i32* %j, align 4, !llfi_index !998
  %284 = load i32* %cur_nnz, align 4, !llfi_index !999
  %285 = icmp slt i32 %283, %284, !llfi_index !1000
  br i1 %285, label %286, label %294, !llfi_index !1001

; <label>:286                                     ; preds = %282
  %287 = load %struct._IO_FILE** %in_file, align 8, !llfi_index !1002
  %288 = load double** %vp, align 8, !llfi_index !1003
  %289 = load i32** %lp, align 8, !llfi_index !1004
  %290 = call i32 (%struct._IO_FILE*, i8*, ...)* @fscanf(%struct._IO_FILE* %287, i8* getelementptr inbounds ([7 x i8]* @.str10, i32 0, i32 0), double* %288, i32* %289), !llfi_index !1005
  br label %291, !llfi_index !1006

; <label>:291                                     ; preds = %286
  %292 = load i32* %j, align 4, !llfi_index !1007
  %293 = add nsw i32 %292, 1, !llfi_index !1008
  store i32 %293, i32* %j, align 4, !llfi_index !1009
  br label %282, !llfi_index !1010

; <label>:294                                     ; preds = %282
  br label %295, !llfi_index !1011

; <label>:295                                     ; preds = %294, %278
  br label %296, !llfi_index !1012

; <label>:296                                     ; preds = %295
  %297 = load i32* %i, align 4, !llfi_index !1013
  %298 = add nsw i32 %297, 1, !llfi_index !1014
  store i32 %298, i32* %i, align 4, !llfi_index !1015
  br label %219, !llfi_index !1016

; <label>:299                                     ; preds = %219
  store i32 0, i32* %cur_local_row, align 4, !llfi_index !1017
  store i32 0, i32* %i, align 4, !llfi_index !1018
  br label %300, !llfi_index !1019

; <label>:300                                     ; preds = %356, %299
  %301 = load i32* %i, align 4, !llfi_index !1020
  %302 = load i32* %total_nrow, align 4, !llfi_index !1021
  %303 = icmp slt i32 %301, %302, !llfi_index !1022
  br i1 %303, label %304, label %359, !llfi_index !1023

; <label>:304                                     ; preds = %300
  %305 = load i32* %start_row, align 4, !llfi_index !1024
  %306 = load i32* %i, align 4, !llfi_index !1025
  %307 = icmp sle i32 %305, %306, !llfi_index !1026
  br i1 %307, label %308, label %349, !llfi_index !1027

; <label>:308                                     ; preds = %304
  %309 = load i32* %i, align 4, !llfi_index !1028
  %310 = load i32* %stop_row, align 4, !llfi_index !1029
  %311 = icmp sle i32 %309, %310, !llfi_index !1030
  br i1 %311, label %312, label %349, !llfi_index !1031

; <label>:312                                     ; preds = %308
  %313 = load i32* %debug, align 4, !llfi_index !1032
  %314 = icmp ne i32 %313, 0, !llfi_index !1033
  br i1 %314, label %315, label %326, !llfi_index !1034

; <label>:315                                     ; preds = %312
  %316 = call %"class.std::basic_ostream"* @_ZStlsISt11char_traitsIcEERSt13basic_ostreamIcT_ES5_PKc(%"class.std::basic_ostream"* @_ZSt4cout, i8* getelementptr inbounds ([9 x i8]* @.str728, i32 0, i32 0)), !llfi_index !1035
  %317 = load i32* %rank, align 4, !llfi_index !1036
  %318 = call %"class.std::basic_ostream"* @_ZNSolsEi(%"class.std::basic_ostream"* %316, i32 %317), !llfi_index !1037
  %319 = call %"class.std::basic_ostream"* @_ZStlsISt11char_traitsIcEERSt13basic_ostreamIcT_ES5_PKc(%"class.std::basic_ostream"* %318, i8* getelementptr inbounds ([5 x i8]* @.str8, i32 0, i32 0)), !llfi_index !1038
  %320 = load i32* %size, align 4, !llfi_index !1039
  %321 = call %"class.std::basic_ostream"* @_ZNSolsEi(%"class.std::basic_ostream"* %319, i32 %320), !llfi_index !1040
  %322 = call %"class.std::basic_ostream"* @_ZStlsISt11char_traitsIcEERSt13basic_ostreamIcT_ES5_PKc(%"class.std::basic_ostream"* %321, i8* getelementptr inbounds ([14 x i8]* @.str11, i32 0, i32 0)), !llfi_index !1041
  %323 = load i32* %i, align 4, !llfi_index !1042
  %324 = call %"class.std::basic_ostream"* @_ZNSolsEi(%"class.std::basic_ostream"* %322, i32 %323), !llfi_index !1043
  %325 = call %"class.std::basic_ostream"* @_ZNSolsEPFRSoS_E(%"class.std::basic_ostream"* %324, %"class.std::basic_ostream"* (%"class.std::basic_ostream"*)* @_ZSt4endlIcSt11char_traitsIcEERSt13basic_ostreamIT_T0_ES6_), !llfi_index !1044
  br label %326, !llfi_index !1045

; <label>:326                                     ; preds = %315, %312
  %327 = load %struct._IO_FILE** %in_file, align 8, !llfi_index !1046
  %328 = call i32 (%struct._IO_FILE*, i8*, ...)* @fscanf(%struct._IO_FILE* %327, i8* getelementptr inbounds ([12 x i8]* @.str12, i32 0, i32 0), double* %xt, double* %bt, double* %xxt), !llfi_index !1047
  %329 = load double* %xt, align 8, !llfi_index !1048
  %330 = load i32* %cur_local_row, align 4, !llfi_index !1049
  %331 = sext i32 %330 to i64, !llfi_index !1050
  %332 = load double*** %3, align 8, !llfi_index !1051
  %333 = load double** %332, align 8, !llfi_index !1052
  %334 = getelementptr inbounds double* %333, i64 %331, !llfi_index !1053
  store double %329, double* %334, align 8, !llfi_index !1054
  %335 = load double* %bt, align 8, !llfi_index !1055
  %336 = load i32* %cur_local_row, align 4, !llfi_index !1056
  %337 = sext i32 %336 to i64, !llfi_index !1057
  %338 = load double*** %4, align 8, !llfi_index !1058
  %339 = load double** %338, align 8, !llfi_index !1059
  %340 = getelementptr inbounds double* %339, i64 %337, !llfi_index !1060
  store double %335, double* %340, align 8, !llfi_index !1061
  %341 = load double* %xxt, align 8, !llfi_index !1062
  %342 = load i32* %cur_local_row, align 4, !llfi_index !1063
  %343 = sext i32 %342 to i64, !llfi_index !1064
  %344 = load double*** %5, align 8, !llfi_index !1065
  %345 = load double** %344, align 8, !llfi_index !1066
  %346 = getelementptr inbounds double* %345, i64 %343, !llfi_index !1067
  store double %341, double* %346, align 8, !llfi_index !1068
  %347 = load i32* %cur_local_row, align 4, !llfi_index !1069
  %348 = add nsw i32 %347, 1, !llfi_index !1070
  store i32 %348, i32* %cur_local_row, align 4, !llfi_index !1071
  br label %355, !llfi_index !1072

; <label>:349                                     ; preds = %308, %304
  %350 = load %struct._IO_FILE** %in_file, align 8, !llfi_index !1073
  %351 = load double** %vp, align 8, !llfi_index !1074
  %352 = load double** %vp, align 8, !llfi_index !1075
  %353 = load double** %vp, align 8, !llfi_index !1076
  %354 = call i32 (%struct._IO_FILE*, i8*, ...)* @fscanf(%struct._IO_FILE* %350, i8* getelementptr inbounds ([12 x i8]* @.str12, i32 0, i32 0), double* %351, double* %352, double* %353), !llfi_index !1077
  br label %355, !llfi_index !1078

; <label>:355                                     ; preds = %349, %326
  br label %356, !llfi_index !1079

; <label>:356                                     ; preds = %355
  %357 = load i32* %i, align 4, !llfi_index !1080
  %358 = add nsw i32 %357, 1, !llfi_index !1081
  store i32 %358, i32* %i, align 4, !llfi_index !1082
  br label %300, !llfi_index !1083

; <label>:359                                     ; preds = %300
  %360 = load %struct._IO_FILE** %in_file, align 8, !llfi_index !1084
  %361 = call i32 @fclose(%struct._IO_FILE* %360), !llfi_index !1085
  %362 = load i32* %debug, align 4, !llfi_index !1086
  %363 = icmp ne i32 %362, 0, !llfi_index !1087
  br i1 %363, label %364, label %374, !llfi_index !1088

; <label>:364                                     ; preds = %359
  %365 = call %"class.std::basic_ostream"* @_ZStlsISt11char_traitsIcEERSt13basic_ostreamIcT_ES5_PKc(%"class.std::basic_ostream"* @_ZSt4cout, i8* getelementptr inbounds ([9 x i8]* @.str728, i32 0, i32 0)), !llfi_index !1089
  %366 = load i32* %rank, align 4, !llfi_index !1090
  %367 = call %"class.std::basic_ostream"* @_ZNSolsEi(%"class.std::basic_ostream"* %365, i32 %366), !llfi_index !1091
  %368 = call %"class.std::basic_ostream"* @_ZStlsISt11char_traitsIcEERSt13basic_ostreamIcT_ES5_PKc(%"class.std::basic_ostream"* %367, i8* getelementptr inbounds ([5 x i8]* @.str8, i32 0, i32 0)), !llfi_index !1092
  %369 = load i32* %size, align 4, !llfi_index !1093
  %370 = call %"class.std::basic_ostream"* @_ZNSolsEi(%"class.std::basic_ostream"* %368, i32 %369), !llfi_index !1094
  %371 = call %"class.std::basic_ostream"* @_ZStlsISt11char_traitsIcEERSt13basic_ostreamIcT_ES5_PKc(%"class.std::basic_ostream"* %370, i8* getelementptr inbounds ([6 x i8]* @.str13, i32 0, i32 0)), !llfi_index !1095
  %372 = load i32* %local_nrow, align 4, !llfi_index !1096
  %373 = call %"class.std::basic_ostream"* @_ZNSolsEi(%"class.std::basic_ostream"* %371, i32 %372), !llfi_index !1097
  br label %374, !llfi_index !1098

; <label>:374                                     ; preds = %364, %359
  %375 = load i32* %debug, align 4, !llfi_index !1099
  %376 = icmp ne i32 %375, 0, !llfi_index !1100
  br i1 %376, label %377, label %385, !llfi_index !1101

; <label>:377                                     ; preds = %374
  %378 = call %"class.std::basic_ostream"* @_ZStlsISt11char_traitsIcEERSt13basic_ostreamIcT_ES5_PKc(%"class.std::basic_ostream"* @_ZSt4cout, i8* getelementptr inbounds ([20 x i8]* @.str14, i32 0, i32 0)), !llfi_index !1102
  %379 = load i32* %start_row, align 4, !llfi_index !1103
  %380 = call %"class.std::basic_ostream"* @_ZNSolsEi(%"class.std::basic_ostream"* %378, i32 %379), !llfi_index !1104
  %381 = call %"class.std::basic_ostream"* @_ZStlsISt11char_traitsIcEERSt13basic_ostreamIcT_ES5_PKc(%"class.std::basic_ostream"* %380, i8* getelementptr inbounds ([10 x i8]* @.str15, i32 0, i32 0)), !llfi_index !1105
  %382 = load i32* %stop_row, align 4, !llfi_index !1106
  %383 = call %"class.std::basic_ostream"* @_ZNSolsEi(%"class.std::basic_ostream"* %381, i32 %382), !llfi_index !1107
  %384 = call %"class.std::basic_ostream"* @_ZNSolsEPFRSoS_E(%"class.std::basic_ostream"* %383, %"class.std::basic_ostream"* (%"class.std::basic_ostream"*)* @_ZSt4endlIcSt11char_traitsIcEERSt13basic_ostreamIT_T0_ES6_), !llfi_index !1108
  br label %385, !llfi_index !1109

; <label>:385                                     ; preds = %377, %374
  %386 = load i32* %debug, align 4, !llfi_index !1110
  %387 = icmp ne i32 %386, 0, !llfi_index !1111
  br i1 %387, label %388, label %400, !llfi_index !1112

; <label>:388                                     ; preds = %385
  %389 = call %"class.std::basic_ostream"* @_ZStlsISt11char_traitsIcEERSt13basic_ostreamIcT_ES5_PKc(%"class.std::basic_ostream"* @_ZSt4cout, i8* getelementptr inbounds ([9 x i8]* @.str728, i32 0, i32 0)), !llfi_index !1113
  %390 = load i32* %rank, align 4, !llfi_index !1114
  %391 = call %"class.std::basic_ostream"* @_ZNSolsEi(%"class.std::basic_ostream"* %389, i32 %390), !llfi_index !1115
  %392 = call %"class.std::basic_ostream"* @_ZStlsISt11char_traitsIcEERSt13basic_ostreamIcT_ES5_PKc(%"class.std::basic_ostream"* %391, i8* getelementptr inbounds ([5 x i8]* @.str8, i32 0, i32 0)), !llfi_index !1116
  %393 = load i32* %size, align 4, !llfi_index !1117
  %394 = call %"class.std::basic_ostream"* @_ZNSolsEi(%"class.std::basic_ostream"* %392, i32 %393), !llfi_index !1118
  %395 = call %"class.std::basic_ostream"* @_ZStlsISt11char_traitsIcEERSt13basic_ostreamIcT_ES5_PKc(%"class.std::basic_ostream"* %394, i8* getelementptr inbounds ([6 x i8]* @.str13, i32 0, i32 0)), !llfi_index !1119
  %396 = load i32* %local_nnz, align 4, !llfi_index !1120
  %397 = call %"class.std::basic_ostream"* @_ZNSolsEi(%"class.std::basic_ostream"* %395, i32 %396), !llfi_index !1121
  %398 = call %"class.std::basic_ostream"* @_ZStlsISt11char_traitsIcEERSt13basic_ostreamIcT_ES5_PKc(%"class.std::basic_ostream"* %397, i8* getelementptr inbounds ([11 x i8]* @.str16, i32 0, i32 0)), !llfi_index !1122
  %399 = call %"class.std::basic_ostream"* @_ZNSolsEPFRSoS_E(%"class.std::basic_ostream"* %398, %"class.std::basic_ostream"* (%"class.std::basic_ostream"*)* @_ZSt4endlIcSt11char_traitsIcEERSt13basic_ostreamIT_T0_ES6_), !llfi_index !1123
  br label %400, !llfi_index !1124

; <label>:400                                     ; preds = %388, %385
  %401 = call noalias i8* @_Znwm(i64 96) #12, !llfi_index !1125
  %402 = bitcast i8* %401 to %struct.HPC_Sparse_Matrix_STRUCT*, !llfi_index !1126
  %403 = load %struct.HPC_Sparse_Matrix_STRUCT*** %2, align 8, !llfi_index !1127
  store %struct.HPC_Sparse_Matrix_STRUCT* %402, %struct.HPC_Sparse_Matrix_STRUCT** %403, align 8, !llfi_index !1128
  %404 = load i32* %start_row, align 4, !llfi_index !1129
  %405 = load %struct.HPC_Sparse_Matrix_STRUCT*** %2, align 8, !llfi_index !1130
  %406 = load %struct.HPC_Sparse_Matrix_STRUCT** %405, align 8, !llfi_index !1131
  %407 = getelementptr inbounds %struct.HPC_Sparse_Matrix_STRUCT* %406, i32 0, i32 1, !llfi_index !1132
  store i32 %404, i32* %407, align 4, !llfi_index !1133
  %408 = load i32* %stop_row, align 4, !llfi_index !1134
  %409 = load %struct.HPC_Sparse_Matrix_STRUCT*** %2, align 8, !llfi_index !1135
  %410 = load %struct.HPC_Sparse_Matrix_STRUCT** %409, align 8, !llfi_index !1136
  %411 = getelementptr inbounds %struct.HPC_Sparse_Matrix_STRUCT* %410, i32 0, i32 2, !llfi_index !1137
  store i32 %408, i32* %411, align 4, !llfi_index !1138
  %412 = load i32* %total_nrow, align 4, !llfi_index !1139
  %413 = load %struct.HPC_Sparse_Matrix_STRUCT*** %2, align 8, !llfi_index !1140
  %414 = load %struct.HPC_Sparse_Matrix_STRUCT** %413, align 8, !llfi_index !1141
  %415 = getelementptr inbounds %struct.HPC_Sparse_Matrix_STRUCT* %414, i32 0, i32 3, !llfi_index !1142
  store i32 %412, i32* %415, align 4, !llfi_index !1143
  %416 = load i64* %total_nnz, align 8, !llfi_index !1144
  %417 = load %struct.HPC_Sparse_Matrix_STRUCT*** %2, align 8, !llfi_index !1145
  %418 = load %struct.HPC_Sparse_Matrix_STRUCT** %417, align 8, !llfi_index !1146
  %419 = getelementptr inbounds %struct.HPC_Sparse_Matrix_STRUCT* %418, i32 0, i32 4, !llfi_index !1147
  store i64 %416, i64* %419, align 8, !llfi_index !1148
  %420 = load i32* %local_nrow, align 4, !llfi_index !1149
  %421 = load %struct.HPC_Sparse_Matrix_STRUCT*** %2, align 8, !llfi_index !1150
  %422 = load %struct.HPC_Sparse_Matrix_STRUCT** %421, align 8, !llfi_index !1151
  %423 = getelementptr inbounds %struct.HPC_Sparse_Matrix_STRUCT* %422, i32 0, i32 5, !llfi_index !1152
  store i32 %420, i32* %423, align 4, !llfi_index !1153
  %424 = load i32* %local_nrow, align 4, !llfi_index !1154
  %425 = load %struct.HPC_Sparse_Matrix_STRUCT*** %2, align 8, !llfi_index !1155
  %426 = load %struct.HPC_Sparse_Matrix_STRUCT** %425, align 8, !llfi_index !1156
  %427 = getelementptr inbounds %struct.HPC_Sparse_Matrix_STRUCT* %426, i32 0, i32 6, !llfi_index !1157
  store i32 %424, i32* %427, align 4, !llfi_index !1158
  %428 = load i32* %local_nnz, align 4, !llfi_index !1159
  %429 = load %struct.HPC_Sparse_Matrix_STRUCT*** %2, align 8, !llfi_index !1160
  %430 = load %struct.HPC_Sparse_Matrix_STRUCT** %429, align 8, !llfi_index !1161
  %431 = getelementptr inbounds %struct.HPC_Sparse_Matrix_STRUCT* %430, i32 0, i32 7, !llfi_index !1162
  store i32 %428, i32* %431, align 4, !llfi_index !1163
  %432 = load i32** %nnz_in_row, align 8, !llfi_index !1164
  %433 = load %struct.HPC_Sparse_Matrix_STRUCT*** %2, align 8, !llfi_index !1165
  %434 = load %struct.HPC_Sparse_Matrix_STRUCT** %433, align 8, !llfi_index !1166
  %435 = getelementptr inbounds %struct.HPC_Sparse_Matrix_STRUCT* %434, i32 0, i32 8, !llfi_index !1167
  store i32* %432, i32** %435, align 8, !llfi_index !1168
  %436 = load double*** %ptr_to_vals_in_row, align 8, !llfi_index !1169
  %437 = load %struct.HPC_Sparse_Matrix_STRUCT*** %2, align 8, !llfi_index !1170
  %438 = load %struct.HPC_Sparse_Matrix_STRUCT** %437, align 8, !llfi_index !1171
  %439 = getelementptr inbounds %struct.HPC_Sparse_Matrix_STRUCT* %438, i32 0, i32 9, !llfi_index !1172
  store double** %436, double*** %439, align 8, !llfi_index !1173
  %440 = load i32*** %ptr_to_inds_in_row, align 8, !llfi_index !1174
  %441 = load %struct.HPC_Sparse_Matrix_STRUCT*** %2, align 8, !llfi_index !1175
  %442 = load %struct.HPC_Sparse_Matrix_STRUCT** %441, align 8, !llfi_index !1176
  %443 = getelementptr inbounds %struct.HPC_Sparse_Matrix_STRUCT* %442, i32 0, i32 10, !llfi_index !1177
  store i32** %440, i32*** %443, align 8, !llfi_index !1178
  %444 = load double*** %ptr_to_diags, align 8, !llfi_index !1179
  %445 = load %struct.HPC_Sparse_Matrix_STRUCT*** %2, align 8, !llfi_index !1180
  %446 = load %struct.HPC_Sparse_Matrix_STRUCT** %445, align 8, !llfi_index !1181
  %447 = getelementptr inbounds %struct.HPC_Sparse_Matrix_STRUCT* %446, i32 0, i32 11, !llfi_index !1182
  store double** %444, double*** %447, align 8, !llfi_index !1183
  ret void, !llfi_index !1184
}

declare i32 @printf(i8*, ...) #0

declare %struct._IO_FILE* @fopen(i8*, i8*) #0

declare i32 @fscanf(%struct._IO_FILE*, i8*, ...) #0

declare i32 @fclose(%struct._IO_FILE*) #0

define internal void @_GLOBAL__I_a32() section ".text.startup" {
  call void @__cxx_global_var_init33(), !llfi_index !1185
  ret void, !llfi_index !1186
}

define internal void @__cxx_global_var_init33() section ".text.startup" {
  call void @_ZNSt8ios_base4InitC1Ev(%"class.std::ios_base::Init"* @_ZStL8__ioinit20), !llfi_index !1187
  %1 = call i32 @__cxa_atexit(void (i8*)* bitcast (void (%"class.std::ios_base::Init"*)* @_ZNSt8ios_base4InitD1Ev to void (i8*)*), i8* getelementptr inbounds (%"class.std::ios_base::Init"* @_ZStL8__ioinit20, i32 0, i32 0), i8* @__dso_handle) #1, !llfi_index !1188
  ret void, !llfi_index !1189
}

; Function Attrs: uwtable
define i32 @_Z18dump_matlab_matrixP24HPC_Sparse_Matrix_STRUCTi(%struct.HPC_Sparse_Matrix_STRUCT* %A, i32 %rank) #2 {
  %1 = alloca i32, align 4, !llfi_index !1190
  %2 = alloca %struct.HPC_Sparse_Matrix_STRUCT*, align 8, !llfi_index !1191
  %3 = alloca i32, align 4, !llfi_index !1192
  %nrow = alloca i32, align 4, !llfi_index !1193
  %start_row = alloca i32, align 4, !llfi_index !1194
  %handle = alloca %struct._IO_FILE*, align 8, !llfi_index !1195
  %i = alloca i32, align 4, !llfi_index !1196
  %cur_vals = alloca double*, align 8, !llfi_index !1197
  %cur_inds = alloca i32*, align 8, !llfi_index !1198
  %cur_nnz = alloca i32, align 4, !llfi_index !1199
  %j = alloca i32, align 4, !llfi_index !1200
  store %struct.HPC_Sparse_Matrix_STRUCT* %A, %struct.HPC_Sparse_Matrix_STRUCT** %2, align 8, !llfi_index !1201
  store i32 %rank, i32* %3, align 4, !llfi_index !1202
  %4 = load %struct.HPC_Sparse_Matrix_STRUCT** %2, align 8, !llfi_index !1203
  %5 = getelementptr inbounds %struct.HPC_Sparse_Matrix_STRUCT* %4, i32 0, i32 5, !llfi_index !1204
  %6 = load i32* %5, align 4, !llfi_index !1205
  store i32 %6, i32* %nrow, align 4, !llfi_index !1206
  %7 = load i32* %nrow, align 4, !llfi_index !1207
  %8 = load i32* %3, align 4, !llfi_index !1208
  %9 = mul nsw i32 %7, %8, !llfi_index !1209
  store i32 %9, i32* %start_row, align 4, !llfi_index !1210
  store %struct._IO_FILE* null, %struct._IO_FILE** %handle, align 8, !llfi_index !1211
  %10 = load i32* %3, align 4, !llfi_index !1212
  %11 = icmp eq i32 %10, 0, !llfi_index !1213
  br i1 %11, label %12, label %14, !llfi_index !1214

; <label>:12                                      ; preds = %0
  %13 = call %struct._IO_FILE* @fopen(i8* getelementptr inbounds ([9 x i8]* @.str34, i32 0, i32 0), i8* getelementptr inbounds ([2 x i8]* @.str135, i32 0, i32 0)), !llfi_index !1215
  store %struct._IO_FILE* %13, %struct._IO_FILE** %handle, align 8, !llfi_index !1216
  br label %33, !llfi_index !1217

; <label>:14                                      ; preds = %0
  %15 = load i32* %3, align 4, !llfi_index !1218
  %16 = icmp eq i32 %15, 1, !llfi_index !1219
  br i1 %16, label %17, label %19, !llfi_index !1220

; <label>:17                                      ; preds = %14
  %18 = call %struct._IO_FILE* @fopen(i8* getelementptr inbounds ([9 x i8]* @.str236, i32 0, i32 0), i8* getelementptr inbounds ([2 x i8]* @.str135, i32 0, i32 0)), !llfi_index !1221
  store %struct._IO_FILE* %18, %struct._IO_FILE** %handle, align 8, !llfi_index !1222
  br label %32, !llfi_index !1223

; <label>:19                                      ; preds = %14
  %20 = load i32* %3, align 4, !llfi_index !1224
  %21 = icmp eq i32 %20, 2, !llfi_index !1225
  br i1 %21, label %22, label %24, !llfi_index !1226

; <label>:22                                      ; preds = %19
  %23 = call %struct._IO_FILE* @fopen(i8* getelementptr inbounds ([9 x i8]* @.str337, i32 0, i32 0), i8* getelementptr inbounds ([2 x i8]* @.str135, i32 0, i32 0)), !llfi_index !1227
  store %struct._IO_FILE* %23, %struct._IO_FILE** %handle, align 8, !llfi_index !1228
  br label %31, !llfi_index !1229

; <label>:24                                      ; preds = %19
  %25 = load i32* %3, align 4, !llfi_index !1230
  %26 = icmp eq i32 %25, 3, !llfi_index !1231
  br i1 %26, label %27, label %29, !llfi_index !1232

; <label>:27                                      ; preds = %24
  %28 = call %struct._IO_FILE* @fopen(i8* getelementptr inbounds ([9 x i8]* @.str438, i32 0, i32 0), i8* getelementptr inbounds ([2 x i8]* @.str135, i32 0, i32 0)), !llfi_index !1233
  store %struct._IO_FILE* %28, %struct._IO_FILE** %handle, align 8, !llfi_index !1234
  br label %30, !llfi_index !1235

; <label>:29                                      ; preds = %24
  store i32 0, i32* %1, !llfi_index !1236
  br label %92, !llfi_index !1237

; <label>:30                                      ; preds = %27
  br label %31, !llfi_index !1238

; <label>:31                                      ; preds = %30, %22
  br label %32, !llfi_index !1239

; <label>:32                                      ; preds = %31, %17
  br label %33, !llfi_index !1240

; <label>:33                                      ; preds = %32, %12
  store i32 0, i32* %i, align 4, !llfi_index !1241
  br label %34, !llfi_index !1242

; <label>:34                                      ; preds = %86, %33
  %35 = load i32* %i, align 4, !llfi_index !1243
  %36 = load i32* %nrow, align 4, !llfi_index !1244
  %37 = icmp slt i32 %35, %36, !llfi_index !1245
  br i1 %37, label %38, label %89, !llfi_index !1246

; <label>:38                                      ; preds = %34
  %39 = load i32* %i, align 4, !llfi_index !1247
  %40 = sext i32 %39 to i64, !llfi_index !1248
  %41 = load %struct.HPC_Sparse_Matrix_STRUCT** %2, align 8, !llfi_index !1249
  %42 = getelementptr inbounds %struct.HPC_Sparse_Matrix_STRUCT* %41, i32 0, i32 9, !llfi_index !1250
  %43 = load double*** %42, align 8, !llfi_index !1251
  %44 = getelementptr inbounds double** %43, i64 %40, !llfi_index !1252
  %45 = load double** %44, align 8, !llfi_index !1253
  store double* %45, double** %cur_vals, align 8, !llfi_index !1254
  %46 = load i32* %i, align 4, !llfi_index !1255
  %47 = sext i32 %46 to i64, !llfi_index !1256
  %48 = load %struct.HPC_Sparse_Matrix_STRUCT** %2, align 8, !llfi_index !1257
  %49 = getelementptr inbounds %struct.HPC_Sparse_Matrix_STRUCT* %48, i32 0, i32 10, !llfi_index !1258
  %50 = load i32*** %49, align 8, !llfi_index !1259
  %51 = getelementptr inbounds i32** %50, i64 %47, !llfi_index !1260
  %52 = load i32** %51, align 8, !llfi_index !1261
  store i32* %52, i32** %cur_inds, align 8, !llfi_index !1262
  %53 = load i32* %i, align 4, !llfi_index !1263
  %54 = sext i32 %53 to i64, !llfi_index !1264
  %55 = load %struct.HPC_Sparse_Matrix_STRUCT** %2, align 8, !llfi_index !1265
  %56 = getelementptr inbounds %struct.HPC_Sparse_Matrix_STRUCT* %55, i32 0, i32 8, !llfi_index !1266
  %57 = load i32** %56, align 8, !llfi_index !1267
  %58 = getelementptr inbounds i32* %57, i64 %54, !llfi_index !1268
  %59 = load i32* %58, align 4, !llfi_index !1269
  store i32 %59, i32* %cur_nnz, align 4, !llfi_index !1270
  store i32 0, i32* %j, align 4, !llfi_index !1271
  br label %60, !llfi_index !1272

; <label>:60                                      ; preds = %82, %38
  %61 = load i32* %j, align 4, !llfi_index !1273
  %62 = load i32* %cur_nnz, align 4, !llfi_index !1274
  %63 = icmp slt i32 %61, %62, !llfi_index !1275
  br i1 %63, label %64, label %85, !llfi_index !1276

; <label>:64                                      ; preds = %60
  %65 = load %struct._IO_FILE** %handle, align 8, !llfi_index !1277
  %66 = load i32* %start_row, align 4, !llfi_index !1278
  %67 = load i32* %i, align 4, !llfi_index !1279
  %68 = add nsw i32 %66, %67, !llfi_index !1280
  %69 = add nsw i32 %68, 1, !llfi_index !1281
  %70 = load i32* %j, align 4, !llfi_index !1282
  %71 = sext i32 %70 to i64, !llfi_index !1283
  %72 = load i32** %cur_inds, align 8, !llfi_index !1284
  %73 = getelementptr inbounds i32* %72, i64 %71, !llfi_index !1285
  %74 = load i32* %73, align 4, !llfi_index !1286
  %75 = add nsw i32 %74, 1, !llfi_index !1287
  %76 = load i32* %j, align 4, !llfi_index !1288
  %77 = sext i32 %76 to i64, !llfi_index !1289
  %78 = load double** %cur_vals, align 8, !llfi_index !1290
  %79 = getelementptr inbounds double* %78, i64 %77, !llfi_index !1291
  %80 = load double* %79, align 8, !llfi_index !1292
  %81 = call i32 (%struct._IO_FILE*, i8*, ...)* @fprintf(%struct._IO_FILE* %65, i8* getelementptr inbounds ([16 x i8]* @.str539, i32 0, i32 0), i32 %69, i32 %75, double %80), !llfi_index !1293
  br label %82, !llfi_index !1294

; <label>:82                                      ; preds = %64
  %83 = load i32* %j, align 4, !llfi_index !1295
  %84 = add nsw i32 %83, 1, !llfi_index !1296
  store i32 %84, i32* %j, align 4, !llfi_index !1297
  br label %60, !llfi_index !1298

; <label>:85                                      ; preds = %60
  br label %86, !llfi_index !1299

; <label>:86                                      ; preds = %85
  %87 = load i32* %i, align 4, !llfi_index !1300
  %88 = add nsw i32 %87, 1, !llfi_index !1301
  store i32 %88, i32* %i, align 4, !llfi_index !1302
  br label %34, !llfi_index !1303

; <label>:89                                      ; preds = %34
  %90 = load %struct._IO_FILE** %handle, align 8, !llfi_index !1304
  %91 = call i32 @fclose(%struct._IO_FILE* %90), !llfi_index !1305
  store i32 0, i32* %1, !llfi_index !1306
  br label %92, !llfi_index !1307

; <label>:92                                      ; preds = %89, %29
  %93 = load i32* %1, !llfi_index !1308
  ret i32 %93, !llfi_index !1309
}

declare i32 @fprintf(%struct._IO_FILE*, i8*, ...) #0

; Function Attrs: uwtable
define i32 @_Z5HPCCGP24HPC_Sparse_Matrix_STRUCTPKdPdidRiRdS3_(%struct.HPC_Sparse_Matrix_STRUCT* %A, double* %b, double* %x, i32 %max_iter, double %tolerance, i32* %niters, double* %normr, double* %times) #2 {
  %1 = alloca %struct.HPC_Sparse_Matrix_STRUCT*, align 8, !llfi_index !1310
  %2 = alloca double*, align 8, !llfi_index !1311
  %3 = alloca double*, align 8, !llfi_index !1312
  %4 = alloca i32, align 4, !llfi_index !1313
  %5 = alloca double, align 8, !llfi_index !1314
  %6 = alloca i32*, align 8, !llfi_index !1315
  %7 = alloca double*, align 8, !llfi_index !1316
  %8 = alloca double*, align 8, !llfi_index !1317
  %t0 = alloca double, align 8, !llfi_index !1318
  %t1 = alloca double, align 8, !llfi_index !1319
  %t2 = alloca double, align 8, !llfi_index !1320
  %t3 = alloca double, align 8, !llfi_index !1321
  %t4 = alloca double, align 8, !llfi_index !1322
  %t5 = alloca double, align 8, !llfi_index !1323
  %nrow = alloca i32, align 4, !llfi_index !1324
  %ncol = alloca i32, align 4, !llfi_index !1325
  %r = alloca double*, align 8, !llfi_index !1326
  %p = alloca double*, align 8, !llfi_index !1327
  %Ap = alloca double*, align 8, !llfi_index !1328
  %rtrans = alloca double, align 8, !llfi_index !1329
  %oldrtrans = alloca double, align 8, !llfi_index !1330
  %rank = alloca i32, align 4, !llfi_index !1331
  %print_freq = alloca i32, align 4, !llfi_index !1332
  %k = alloca i32, align 4, !llfi_index !1333
  %beta = alloca double, align 8, !llfi_index !1334
  %alpha = alloca double, align 8, !llfi_index !1335
  store %struct.HPC_Sparse_Matrix_STRUCT* %A, %struct.HPC_Sparse_Matrix_STRUCT** %1, align 8, !llfi_index !1336
  store double* %b, double** %2, align 8, !llfi_index !1337
  store double* %x, double** %3, align 8, !llfi_index !1338
  store i32 %max_iter, i32* %4, align 4, !llfi_index !1339
  store double %tolerance, double* %5, align 8, !llfi_index !1340
  store i32* %niters, i32** %6, align 8, !llfi_index !1341
  store double* %normr, double** %7, align 8, !llfi_index !1342
  store double* %times, double** %8, align 8, !llfi_index !1343
  store double 0.000000e+00, double* %t0, align 8, !llfi_index !1344
  store double 0.000000e+00, double* %t1, align 8, !llfi_index !1345
  store double 0.000000e+00, double* %t2, align 8, !llfi_index !1346
  store double 0.000000e+00, double* %t3, align 8, !llfi_index !1347
  store double 0.000000e+00, double* %t4, align 8, !llfi_index !1348
  store double 0.000000e+00, double* %t5, align 8, !llfi_index !1349
  %9 = load %struct.HPC_Sparse_Matrix_STRUCT** %1, align 8, !llfi_index !1350
  %10 = getelementptr inbounds %struct.HPC_Sparse_Matrix_STRUCT* %9, i32 0, i32 5, !llfi_index !1351
  %11 = load i32* %10, align 4, !llfi_index !1352
  store i32 %11, i32* %nrow, align 4, !llfi_index !1353
  %12 = load %struct.HPC_Sparse_Matrix_STRUCT** %1, align 8, !llfi_index !1354
  %13 = getelementptr inbounds %struct.HPC_Sparse_Matrix_STRUCT* %12, i32 0, i32 6, !llfi_index !1355
  %14 = load i32* %13, align 4, !llfi_index !1356
  store i32 %14, i32* %ncol, align 4, !llfi_index !1357
  %15 = load i32* %nrow, align 4, !llfi_index !1358
  %16 = sext i32 %15 to i64, !llfi_index !1359
  %17 = call { i64, i1 } @llvm.umul.with.overflow.i64(i64 %16, i64 8), !llfi_index !1360
  %18 = extractvalue { i64, i1 } %17, 1, !llfi_index !1361
  %19 = extractvalue { i64, i1 } %17, 0, !llfi_index !1362
  %20 = select i1 %18, i64 -1, i64 %19, !llfi_index !1363
  %21 = call noalias i8* @_Znam(i64 %20) #12, !llfi_index !1364
  %22 = bitcast i8* %21 to double*, !llfi_index !1365
  store double* %22, double** %r, align 8, !llfi_index !1366
  %23 = load i32* %ncol, align 4, !llfi_index !1367
  %24 = sext i32 %23 to i64, !llfi_index !1368
  %25 = call { i64, i1 } @llvm.umul.with.overflow.i64(i64 %24, i64 8), !llfi_index !1369
  %26 = extractvalue { i64, i1 } %25, 1, !llfi_index !1370
  %27 = extractvalue { i64, i1 } %25, 0, !llfi_index !1371
  %28 = select i1 %26, i64 -1, i64 %27, !llfi_index !1372
  %29 = call noalias i8* @_Znam(i64 %28) #12, !llfi_index !1373
  %30 = bitcast i8* %29 to double*, !llfi_index !1374
  store double* %30, double** %p, align 8, !llfi_index !1375
  %31 = load i32* %nrow, align 4, !llfi_index !1376
  %32 = sext i32 %31 to i64, !llfi_index !1377
  %33 = call { i64, i1 } @llvm.umul.with.overflow.i64(i64 %32, i64 8), !llfi_index !1378
  %34 = extractvalue { i64, i1 } %33, 1, !llfi_index !1379
  %35 = extractvalue { i64, i1 } %33, 0, !llfi_index !1380
  %36 = select i1 %34, i64 -1, i64 %35, !llfi_index !1381
  %37 = call noalias i8* @_Znam(i64 %36) #12, !llfi_index !1382
  %38 = bitcast i8* %37 to double*, !llfi_index !1383
  store double* %38, double** %Ap, align 8, !llfi_index !1384
  %39 = load double** %7, align 8, !llfi_index !1385
  store double 0.000000e+00, double* %39, align 8, !llfi_index !1386
  store double 0.000000e+00, double* %rtrans, align 8, !llfi_index !1387
  store double 0.000000e+00, double* %oldrtrans, align 8, !llfi_index !1388
  store i32 0, i32* %rank, align 4, !llfi_index !1389
  %40 = load i32* %4, align 4, !llfi_index !1390
  %41 = sdiv i32 %40, 10, !llfi_index !1391
  store i32 %41, i32* %print_freq, align 4, !llfi_index !1392
  %42 = load i32* %print_freq, align 4, !llfi_index !1393
  %43 = icmp sgt i32 %42, 5, !llfi_index !1394
  br i1 %43, label %44, label %45, !llfi_index !1395

; <label>:44                                      ; preds = %0
  store i32 50, i32* %print_freq, align 4, !llfi_index !1396
  br label %45, !llfi_index !1397

; <label>:45                                      ; preds = %44, %0
  %46 = load i32* %print_freq, align 4, !llfi_index !1398
  %47 = icmp slt i32 %46, 1, !llfi_index !1399
  br i1 %47, label %48, label %49, !llfi_index !1400

; <label>:48                                      ; preds = %45
  store i32 1, i32* %print_freq, align 4, !llfi_index !1401
  br label %49, !llfi_index !1402

; <label>:49                                      ; preds = %48, %45
  %50 = load i32* %nrow, align 4, !llfi_index !1403
  %51 = load double** %3, align 8, !llfi_index !1404
  %52 = load double** %3, align 8, !llfi_index !1405
  %53 = load double** %p, align 8, !llfi_index !1406
  %54 = call i32 @_Z6waxpbyidPKddS0_Pd(i32 %50, double 1.000000e+00, double* %51, double 0.000000e+00, double* %52, double* %53), !llfi_index !1407
  %55 = load %struct.HPC_Sparse_Matrix_STRUCT** %1, align 8, !llfi_index !1408
  %56 = load double** %p, align 8, !llfi_index !1409
  %57 = load double** %Ap, align 8, !llfi_index !1410
  %58 = call i32 @_Z12HPC_sparsemvP24HPC_Sparse_Matrix_STRUCTPKdPd(%struct.HPC_Sparse_Matrix_STRUCT* %55, double* %56, double* %57), !llfi_index !1411
  %59 = load i32* %nrow, align 4, !llfi_index !1412
  %60 = load double** %2, align 8, !llfi_index !1413
  %61 = load double** %Ap, align 8, !llfi_index !1414
  %62 = load double** %r, align 8, !llfi_index !1415
  %63 = call i32 @_Z6waxpbyidPKddS0_Pd(i32 %59, double 1.000000e+00, double* %60, double -1.000000e+00, double* %61, double* %62), !llfi_index !1416
  %64 = load i32* %nrow, align 4, !llfi_index !1417
  %65 = load double** %r, align 8, !llfi_index !1418
  %66 = load double** %r, align 8, !llfi_index !1419
  %67 = call i32 @_Z4ddotiPKdS0_PdRd(i32 %64, double* %65, double* %66, double* %rtrans, double* %t4), !llfi_index !1420
  %68 = load double* %rtrans, align 8, !llfi_index !1421
  %69 = call double @sqrt(double %68) #1, !llfi_index !1422
  %70 = load double** %7, align 8, !llfi_index !1423
  store double %69, double* %70, align 8, !llfi_index !1424
  %71 = load i32* %rank, align 4, !llfi_index !1425
  %72 = icmp eq i32 %71, 0, !llfi_index !1426
  br i1 %72, label %73, label %79, !llfi_index !1427

; <label>:73                                      ; preds = %49
  %74 = call %"class.std::basic_ostream"* @_ZStlsISt11char_traitsIcEERSt13basic_ostreamIcT_ES5_PKc(%"class.std::basic_ostream"* @_ZSt4cout, i8* getelementptr inbounds ([20 x i8]* @.str43, i32 0, i32 0)), !llfi_index !1428
  %75 = load double** %7, align 8, !llfi_index !1429
  %76 = load double* %75, align 8, !llfi_index !1430
  %77 = call %"class.std::basic_ostream"* @_ZNSolsEd(%"class.std::basic_ostream"* %74, double %76), !llfi_index !1431
  %78 = call %"class.std::basic_ostream"* @_ZNSolsEPFRSoS_E(%"class.std::basic_ostream"* %77, %"class.std::basic_ostream"* (%"class.std::basic_ostream"*)* @_ZSt4endlIcSt11char_traitsIcEERSt13basic_ostreamIT_T0_ES6_), !llfi_index !1432
  br label %79, !llfi_index !1433

; <label>:79                                      ; preds = %73, %49
  store i32 1, i32* %k, align 4, !llfi_index !1434
  br label %80, !llfi_index !1435

; <label>:80                                      ; preds = %165, %79
  %81 = load i32* %k, align 4, !llfi_index !1436
  %82 = load i32* %4, align 4, !llfi_index !1437
  %83 = icmp slt i32 %81, %82, !llfi_index !1438
  br i1 %83, label %84, label %168, !llfi_index !1439

; <label>:84                                      ; preds = %80
  %85 = load double** %7, align 8, !llfi_index !1440
  %86 = load double* %85, align 8, !llfi_index !1441
  %87 = load double* %5, align 8, !llfi_index !1442
  %88 = fcmp ogt double %86, %87, !llfi_index !1443
  br i1 %88, label %89, label %168, !llfi_index !1444

; <label>:89                                      ; preds = %84
  %90 = load i32* %k, align 4, !llfi_index !1445
  %91 = icmp eq i32 %90, 1, !llfi_index !1446
  br i1 %91, label %92, label %98, !llfi_index !1447

; <label>:92                                      ; preds = %89
  %93 = load i32* %nrow, align 4, !llfi_index !1448
  %94 = load double** %r, align 8, !llfi_index !1449
  %95 = load double** %r, align 8, !llfi_index !1450
  %96 = load double** %p, align 8, !llfi_index !1451
  %97 = call i32 @_Z6waxpbyidPKddS0_Pd(i32 %93, double 1.000000e+00, double* %94, double 0.000000e+00, double* %95, double* %96), !llfi_index !1452
  br label %113, !llfi_index !1453

; <label>:98                                      ; preds = %89
  %99 = load double* %rtrans, align 8, !llfi_index !1454
  store double %99, double* %oldrtrans, align 8, !llfi_index !1455
  %100 = load i32* %nrow, align 4, !llfi_index !1456
  %101 = load double** %r, align 8, !llfi_index !1457
  %102 = load double** %r, align 8, !llfi_index !1458
  %103 = call i32 @_Z4ddotiPKdS0_PdRd(i32 %100, double* %101, double* %102, double* %rtrans, double* %t4), !llfi_index !1459
  %104 = load double* %rtrans, align 8, !llfi_index !1460
  %105 = load double* %oldrtrans, align 8, !llfi_index !1461
  %106 = fdiv double %104, %105, !llfi_index !1462
  store double %106, double* %beta, align 8, !llfi_index !1463
  %107 = load i32* %nrow, align 4, !llfi_index !1464
  %108 = load double** %r, align 8, !llfi_index !1465
  %109 = load double* %beta, align 8, !llfi_index !1466
  %110 = load double** %p, align 8, !llfi_index !1467
  %111 = load double** %p, align 8, !llfi_index !1468
  %112 = call i32 @_Z6waxpbyidPKddS0_Pd(i32 %107, double 1.000000e+00, double* %108, double %109, double* %110, double* %111), !llfi_index !1469
  br label %113, !llfi_index !1470

; <label>:113                                     ; preds = %98, %92
  %114 = load double* %rtrans, align 8, !llfi_index !1471
  %115 = call double @sqrt(double %114) #1, !llfi_index !1472
  %116 = load double** %7, align 8, !llfi_index !1473
  store double %115, double* %116, align 8, !llfi_index !1474
  %117 = load i32* %rank, align 4, !llfi_index !1475
  %118 = icmp eq i32 %117, 0, !llfi_index !1476
  br i1 %118, label %119, label %138, !llfi_index !1477

; <label>:119                                     ; preds = %113
  %120 = load i32* %k, align 4, !llfi_index !1478
  %121 = load i32* %print_freq, align 4, !llfi_index !1479
  %122 = srem i32 %120, %121, !llfi_index !1480
  %123 = icmp eq i32 %122, 0, !llfi_index !1481
  br i1 %123, label %129, label %124, !llfi_index !1482

; <label>:124                                     ; preds = %119
  %125 = load i32* %k, align 4, !llfi_index !1483
  %126 = add nsw i32 %125, 1, !llfi_index !1484
  %127 = load i32* %4, align 4, !llfi_index !1485
  %128 = icmp eq i32 %126, %127, !llfi_index !1486
  br i1 %128, label %129, label %138, !llfi_index !1487

; <label>:129                                     ; preds = %124, %119
  %130 = call %"class.std::basic_ostream"* @_ZStlsISt11char_traitsIcEERSt13basic_ostreamIcT_ES5_PKc(%"class.std::basic_ostream"* @_ZSt4cout, i8* getelementptr inbounds ([13 x i8]* @.str144, i32 0, i32 0)), !llfi_index !1488
  %131 = load i32* %k, align 4, !llfi_index !1489
  %132 = call %"class.std::basic_ostream"* @_ZNSolsEi(%"class.std::basic_ostream"* %130, i32 %131), !llfi_index !1490
  %133 = call %"class.std::basic_ostream"* @_ZStlsISt11char_traitsIcEERSt13basic_ostreamIcT_ES5_PKc(%"class.std::basic_ostream"* %132, i8* getelementptr inbounds ([15 x i8]* @.str245, i32 0, i32 0)), !llfi_index !1491
  %134 = load double** %7, align 8, !llfi_index !1492
  %135 = load double* %134, align 8, !llfi_index !1493
  %136 = call %"class.std::basic_ostream"* @_ZNSolsEd(%"class.std::basic_ostream"* %133, double %135), !llfi_index !1494
  %137 = call %"class.std::basic_ostream"* @_ZNSolsEPFRSoS_E(%"class.std::basic_ostream"* %136, %"class.std::basic_ostream"* (%"class.std::basic_ostream"*)* @_ZSt4endlIcSt11char_traitsIcEERSt13basic_ostreamIT_T0_ES6_), !llfi_index !1495
  br label %138, !llfi_index !1496

; <label>:138                                     ; preds = %129, %124, %113
  %139 = load %struct.HPC_Sparse_Matrix_STRUCT** %1, align 8, !llfi_index !1497
  %140 = load double** %p, align 8, !llfi_index !1498
  %141 = load double** %Ap, align 8, !llfi_index !1499
  %142 = call i32 @_Z12HPC_sparsemvP24HPC_Sparse_Matrix_STRUCTPKdPd(%struct.HPC_Sparse_Matrix_STRUCT* %139, double* %140, double* %141), !llfi_index !1500
  store double 0.000000e+00, double* %alpha, align 8, !llfi_index !1501
  %143 = load i32* %nrow, align 4, !llfi_index !1502
  %144 = load double** %p, align 8, !llfi_index !1503
  %145 = load double** %Ap, align 8, !llfi_index !1504
  %146 = call i32 @_Z4ddotiPKdS0_PdRd(i32 %143, double* %144, double* %145, double* %alpha, double* %t4), !llfi_index !1505
  %147 = load double* %rtrans, align 8, !llfi_index !1506
  %148 = load double* %alpha, align 8, !llfi_index !1507
  %149 = fdiv double %147, %148, !llfi_index !1508
  store double %149, double* %alpha, align 8, !llfi_index !1509
  %150 = load i32* %nrow, align 4, !llfi_index !1510
  %151 = load double** %3, align 8, !llfi_index !1511
  %152 = load double* %alpha, align 8, !llfi_index !1512
  %153 = load double** %p, align 8, !llfi_index !1513
  %154 = load double** %3, align 8, !llfi_index !1514
  %155 = call i32 @_Z6waxpbyidPKddS0_Pd(i32 %150, double 1.000000e+00, double* %151, double %152, double* %153, double* %154), !llfi_index !1515
  %156 = load i32* %nrow, align 4, !llfi_index !1516
  %157 = load double** %r, align 8, !llfi_index !1517
  %158 = load double* %alpha, align 8, !llfi_index !1518
  %159 = fsub double -0.000000e+00, %158, !llfi_index !1519
  %160 = load double** %Ap, align 8, !llfi_index !1520
  %161 = load double** %r, align 8, !llfi_index !1521
  %162 = call i32 @_Z6waxpbyidPKddS0_Pd(i32 %156, double 1.000000e+00, double* %157, double %159, double* %160, double* %161), !llfi_index !1522
  %163 = load i32* %k, align 4, !llfi_index !1523
  %164 = load i32** %6, align 8, !llfi_index !1524
  store i32 %163, i32* %164, align 4, !llfi_index !1525
  br label %165, !llfi_index !1526

; <label>:165                                     ; preds = %138
  %166 = load i32* %k, align 4, !llfi_index !1527
  %167 = add nsw i32 %166, 1, !llfi_index !1528
  store i32 %167, i32* %k, align 4, !llfi_index !1529
  br label %80, !llfi_index !1530

; <label>:168                                     ; preds = %84, %80
  %169 = load double** %p, align 8, !llfi_index !1531
  %170 = icmp eq double* %169, null, !llfi_index !1532
  br i1 %170, label %173, label %171, !llfi_index !1533

; <label>:171                                     ; preds = %168
  %172 = bitcast double* %169 to i8*, !llfi_index !1534
  call void @_ZdaPv(i8* %172) #13, !llfi_index !1535
  br label %173, !llfi_index !1536

; <label>:173                                     ; preds = %171, %168
  %174 = load double** %Ap, align 8, !llfi_index !1537
  %175 = icmp eq double* %174, null, !llfi_index !1538
  br i1 %175, label %178, label %176, !llfi_index !1539

; <label>:176                                     ; preds = %173
  %177 = bitcast double* %174 to i8*, !llfi_index !1540
  call void @_ZdaPv(i8* %177) #13, !llfi_index !1541
  br label %178, !llfi_index !1542

; <label>:178                                     ; preds = %176, %173
  %179 = load double** %r, align 8, !llfi_index !1543
  %180 = icmp eq double* %179, null, !llfi_index !1544
  br i1 %180, label %183, label %181, !llfi_index !1545

; <label>:181                                     ; preds = %178
  %182 = bitcast double* %179 to i8*, !llfi_index !1546
  call void @_ZdaPv(i8* %182) #13, !llfi_index !1547
  br label %183, !llfi_index !1548

; <label>:183                                     ; preds = %181, %178
  ret i32 0, !llfi_index !1549
}

; Function Attrs: nounwind
declare double @sqrt(double) #7

declare %"class.std::basic_ostream"* @_ZNSolsEd(%"class.std::basic_ostream"*, double) #0

; Function Attrs: nobuiltin nounwind
declare void @_ZdaPv(i8*) #8

define internal void @_GLOBAL__I_a49() section ".text.startup" {
  call void @__cxx_global_var_init50(), !llfi_index !1550
  ret void, !llfi_index !1551
}

define internal void @__cxx_global_var_init50() section ".text.startup" {
  call void @_ZNSt8ios_base4InitC1Ev(%"class.std::ios_base::Init"* @_ZStL8__ioinit42), !llfi_index !1552
  %1 = call i32 @__cxa_atexit(void (i8*)* bitcast (void (%"class.std::ios_base::Init"*)* @_ZNSt8ios_base4InitD1Ev to void (i8*)*), i8* getelementptr inbounds (%"class.std::ios_base::Init"* @_ZStL8__ioinit42, i32 0, i32 0), i8* @__dso_handle) #1, !llfi_index !1553
  ret void, !llfi_index !1554
}

; Function Attrs: nounwind uwtable
define i32 @_Z12HPC_sparsemvP24HPC_Sparse_Matrix_STRUCTPKdPd(%struct.HPC_Sparse_Matrix_STRUCT* %A, double* %x, double* %y) #9 {
  %1 = alloca %struct.HPC_Sparse_Matrix_STRUCT*, align 8, !llfi_index !1555
  %2 = alloca double*, align 8, !llfi_index !1556
  %3 = alloca double*, align 8, !llfi_index !1557
  %nrow = alloca i32, align 4, !llfi_index !1558
  %i = alloca i32, align 4, !llfi_index !1559
  %sum = alloca double, align 8, !llfi_index !1560
  %cur_vals = alloca double*, align 8, !llfi_index !1561
  %cur_inds = alloca i32*, align 8, !llfi_index !1562
  %cur_nnz = alloca i32, align 4, !llfi_index !1563
  %j = alloca i32, align 4, !llfi_index !1564
  store %struct.HPC_Sparse_Matrix_STRUCT* %A, %struct.HPC_Sparse_Matrix_STRUCT** %1, align 8, !llfi_index !1565
  store double* %x, double** %2, align 8, !llfi_index !1566
  store double* %y, double** %3, align 8, !llfi_index !1567
  %4 = load %struct.HPC_Sparse_Matrix_STRUCT** %1, align 8, !llfi_index !1568
  %5 = getelementptr inbounds %struct.HPC_Sparse_Matrix_STRUCT* %4, i32 0, i32 5, !llfi_index !1569
  %6 = load i32* %5, align 4, !llfi_index !1570
  store i32 %6, i32* %nrow, align 4, !llfi_index !1571
  store i32 0, i32* %i, align 4, !llfi_index !1572
  br label %7, !llfi_index !1573

; <label>:7                                       ; preds = %64, %0
  %8 = load i32* %i, align 4, !llfi_index !1574
  %9 = load i32* %nrow, align 4, !llfi_index !1575
  %10 = icmp slt i32 %8, %9, !llfi_index !1576
  br i1 %10, label %11, label %67, !llfi_index !1577

; <label>:11                                      ; preds = %7
  store double 0.000000e+00, double* %sum, align 8, !llfi_index !1578
  %12 = load i32* %i, align 4, !llfi_index !1579
  %13 = sext i32 %12 to i64, !llfi_index !1580
  %14 = load %struct.HPC_Sparse_Matrix_STRUCT** %1, align 8, !llfi_index !1581
  %15 = getelementptr inbounds %struct.HPC_Sparse_Matrix_STRUCT* %14, i32 0, i32 9, !llfi_index !1582
  %16 = load double*** %15, align 8, !llfi_index !1583
  %17 = getelementptr inbounds double** %16, i64 %13, !llfi_index !1584
  %18 = load double** %17, align 8, !llfi_index !1585
  store double* %18, double** %cur_vals, align 8, !llfi_index !1586
  %19 = load i32* %i, align 4, !llfi_index !1587
  %20 = sext i32 %19 to i64, !llfi_index !1588
  %21 = load %struct.HPC_Sparse_Matrix_STRUCT** %1, align 8, !llfi_index !1589
  %22 = getelementptr inbounds %struct.HPC_Sparse_Matrix_STRUCT* %21, i32 0, i32 10, !llfi_index !1590
  %23 = load i32*** %22, align 8, !llfi_index !1591
  %24 = getelementptr inbounds i32** %23, i64 %20, !llfi_index !1592
  %25 = load i32** %24, align 8, !llfi_index !1593
  store i32* %25, i32** %cur_inds, align 8, !llfi_index !1594
  %26 = load i32* %i, align 4, !llfi_index !1595
  %27 = sext i32 %26 to i64, !llfi_index !1596
  %28 = load %struct.HPC_Sparse_Matrix_STRUCT** %1, align 8, !llfi_index !1597
  %29 = getelementptr inbounds %struct.HPC_Sparse_Matrix_STRUCT* %28, i32 0, i32 8, !llfi_index !1598
  %30 = load i32** %29, align 8, !llfi_index !1599
  %31 = getelementptr inbounds i32* %30, i64 %27, !llfi_index !1600
  %32 = load i32* %31, align 4, !llfi_index !1601
  store i32 %32, i32* %cur_nnz, align 4, !llfi_index !1602
  store i32 0, i32* %j, align 4, !llfi_index !1603
  br label %33, !llfi_index !1604

; <label>:33                                      ; preds = %55, %11
  %34 = load i32* %j, align 4, !llfi_index !1605
  %35 = load i32* %cur_nnz, align 4, !llfi_index !1606
  %36 = icmp slt i32 %34, %35, !llfi_index !1607
  br i1 %36, label %37, label %58, !llfi_index !1608

; <label>:37                                      ; preds = %33
  %38 = load i32* %j, align 4, !llfi_index !1609
  %39 = sext i32 %38 to i64, !llfi_index !1610
  %40 = load double** %cur_vals, align 8, !llfi_index !1611
  %41 = getelementptr inbounds double* %40, i64 %39, !llfi_index !1612
  %42 = load double* %41, align 8, !llfi_index !1613
  %43 = load i32* %j, align 4, !llfi_index !1614
  %44 = sext i32 %43 to i64, !llfi_index !1615
  %45 = load i32** %cur_inds, align 8, !llfi_index !1616
  %46 = getelementptr inbounds i32* %45, i64 %44, !llfi_index !1617
  %47 = load i32* %46, align 4, !llfi_index !1618
  %48 = sext i32 %47 to i64, !llfi_index !1619
  %49 = load double** %2, align 8, !llfi_index !1620
  %50 = getelementptr inbounds double* %49, i64 %48, !llfi_index !1621
  %51 = load double* %50, align 8, !llfi_index !1622
  %52 = fmul double %42, %51, !llfi_index !1623
  %53 = load double* %sum, align 8, !llfi_index !1624
  %54 = fadd double %53, %52, !llfi_index !1625
  store double %54, double* %sum, align 8, !llfi_index !1626
  br label %55, !llfi_index !1627

; <label>:55                                      ; preds = %37
  %56 = load i32* %j, align 4, !llfi_index !1628
  %57 = add nsw i32 %56, 1, !llfi_index !1629
  store i32 %57, i32* %j, align 4, !llfi_index !1630
  br label %33, !llfi_index !1631

; <label>:58                                      ; preds = %33
  %59 = load double* %sum, align 8, !llfi_index !1632
  %60 = load i32* %i, align 4, !llfi_index !1633
  %61 = sext i32 %60 to i64, !llfi_index !1634
  %62 = load double** %3, align 8, !llfi_index !1635
  %63 = getelementptr inbounds double* %62, i64 %61, !llfi_index !1636
  store double %59, double* %63, align 8, !llfi_index !1637
  br label %64, !llfi_index !1638

; <label>:64                                      ; preds = %58
  %65 = load i32* %i, align 4, !llfi_index !1639
  %66 = add nsw i32 %65, 1, !llfi_index !1640
  store i32 %66, i32* %i, align 4, !llfi_index !1641
  br label %7, !llfi_index !1642

; <label>:67                                      ; preds = %7
  ret i32 0, !llfi_index !1643
}

define internal void @_GLOBAL__I_a55() section ".text.startup" {
  call void @__cxx_global_var_init56(), !llfi_index !1644
  ret void, !llfi_index !1645
}

define internal void @__cxx_global_var_init56() section ".text.startup" {
  call void @_ZNSt8ios_base4InitC1Ev(%"class.std::ios_base::Init"* @_ZStL8__ioinit51), !llfi_index !1646
  %1 = call i32 @__cxa_atexit(void (i8*)* bitcast (void (%"class.std::ios_base::Init"*)* @_ZNSt8ios_base4InitD1Ev to void (i8*)*), i8* getelementptr inbounds (%"class.std::ios_base::Init"* @_ZStL8__ioinit51, i32 0, i32 0), i8* @__dso_handle) #1, !llfi_index !1647
  ret void, !llfi_index !1648
}

; Function Attrs: nounwind uwtable
define i32 @_Z6waxpbyidPKddS0_Pd(i32 %n, double %alpha, double* %x, double %beta, double* %y, double* %w) #9 {
  %1 = alloca i32, align 4, !llfi_index !1649
  %2 = alloca double, align 8, !llfi_index !1650
  %3 = alloca double*, align 8, !llfi_index !1651
  %4 = alloca double, align 8, !llfi_index !1652
  %5 = alloca double*, align 8, !llfi_index !1653
  %6 = alloca double*, align 8, !llfi_index !1654
  %i = alloca i32, align 4, !llfi_index !1655
  %i1 = alloca i32, align 4, !llfi_index !1656
  %i2 = alloca i32, align 4, !llfi_index !1657
  store i32 %n, i32* %1, align 4, !llfi_index !1658
  store double %alpha, double* %2, align 8, !llfi_index !1659
  store double* %x, double** %3, align 8, !llfi_index !1660
  store double %beta, double* %4, align 8, !llfi_index !1661
  store double* %y, double** %5, align 8, !llfi_index !1662
  store double* %w, double** %6, align 8, !llfi_index !1663
  %7 = load double* %2, align 8, !llfi_index !1664
  %8 = fptosi double %7 to i32, !llfi_index !1665
  %9 = icmp eq i32 %8, 1, !llfi_index !1666
  br i1 %9, label %10, label %37, !llfi_index !1667

; <label>:10                                      ; preds = %0
  store i32 0, i32* %i, align 4, !llfi_index !1668
  br label %11, !llfi_index !1669

; <label>:11                                      ; preds = %33, %10
  %12 = load i32* %i, align 4, !llfi_index !1670
  %13 = load i32* %1, align 4, !llfi_index !1671
  %14 = icmp slt i32 %12, %13, !llfi_index !1672
  br i1 %14, label %15, label %36, !llfi_index !1673

; <label>:15                                      ; preds = %11
  %16 = load i32* %i, align 4, !llfi_index !1674
  %17 = sext i32 %16 to i64, !llfi_index !1675
  %18 = load double** %3, align 8, !llfi_index !1676
  %19 = getelementptr inbounds double* %18, i64 %17, !llfi_index !1677
  %20 = load double* %19, align 8, !llfi_index !1678
  %21 = load double* %4, align 8, !llfi_index !1679
  %22 = load i32* %i, align 4, !llfi_index !1680
  %23 = sext i32 %22 to i64, !llfi_index !1681
  %24 = load double** %5, align 8, !llfi_index !1682
  %25 = getelementptr inbounds double* %24, i64 %23, !llfi_index !1683
  %26 = load double* %25, align 8, !llfi_index !1684
  %27 = fmul double %21, %26, !llfi_index !1685
  %28 = fadd double %20, %27, !llfi_index !1686
  %29 = load i32* %i, align 4, !llfi_index !1687
  %30 = sext i32 %29 to i64, !llfi_index !1688
  %31 = load double** %6, align 8, !llfi_index !1689
  %32 = getelementptr inbounds double* %31, i64 %30, !llfi_index !1690
  store double %28, double* %32, align 8, !llfi_index !1691
  br label %33, !llfi_index !1692

; <label>:33                                      ; preds = %15
  %34 = load i32* %i, align 4, !llfi_index !1693
  %35 = add nsw i32 %34, 1, !llfi_index !1694
  store i32 %35, i32* %i, align 4, !llfi_index !1695
  br label %11, !llfi_index !1696

; <label>:36                                      ; preds = %11
  br label %98, !llfi_index !1697

; <label>:37                                      ; preds = %0
  %38 = load double* %4, align 8, !llfi_index !1698
  %39 = fptosi double %38 to i32, !llfi_index !1699
  %40 = icmp eq i32 %39, 1, !llfi_index !1700
  br i1 %40, label %41, label %68, !llfi_index !1701

; <label>:41                                      ; preds = %37
  store i32 0, i32* %i1, align 4, !llfi_index !1702
  br label %42, !llfi_index !1703

; <label>:42                                      ; preds = %64, %41
  %43 = load i32* %i1, align 4, !llfi_index !1704
  %44 = load i32* %1, align 4, !llfi_index !1705
  %45 = icmp slt i32 %43, %44, !llfi_index !1706
  br i1 %45, label %46, label %67, !llfi_index !1707

; <label>:46                                      ; preds = %42
  %47 = load double* %2, align 8, !llfi_index !1708
  %48 = load i32* %i1, align 4, !llfi_index !1709
  %49 = sext i32 %48 to i64, !llfi_index !1710
  %50 = load double** %3, align 8, !llfi_index !1711
  %51 = getelementptr inbounds double* %50, i64 %49, !llfi_index !1712
  %52 = load double* %51, align 8, !llfi_index !1713
  %53 = fmul double %47, %52, !llfi_index !1714
  %54 = load i32* %i1, align 4, !llfi_index !1715
  %55 = sext i32 %54 to i64, !llfi_index !1716
  %56 = load double** %5, align 8, !llfi_index !1717
  %57 = getelementptr inbounds double* %56, i64 %55, !llfi_index !1718
  %58 = load double* %57, align 8, !llfi_index !1719
  %59 = fadd double %53, %58, !llfi_index !1720
  %60 = load i32* %i1, align 4, !llfi_index !1721
  %61 = sext i32 %60 to i64, !llfi_index !1722
  %62 = load double** %6, align 8, !llfi_index !1723
  %63 = getelementptr inbounds double* %62, i64 %61, !llfi_index !1724
  store double %59, double* %63, align 8, !llfi_index !1725
  br label %64, !llfi_index !1726

; <label>:64                                      ; preds = %46
  %65 = load i32* %i1, align 4, !llfi_index !1727
  %66 = add nsw i32 %65, 1, !llfi_index !1728
  store i32 %66, i32* %i1, align 4, !llfi_index !1729
  br label %42, !llfi_index !1730

; <label>:67                                      ; preds = %42
  br label %97, !llfi_index !1731

; <label>:68                                      ; preds = %37
  store i32 0, i32* %i2, align 4, !llfi_index !1732
  br label %69, !llfi_index !1733

; <label>:69                                      ; preds = %93, %68
  %70 = load i32* %i2, align 4, !llfi_index !1734
  %71 = load i32* %1, align 4, !llfi_index !1735
  %72 = icmp slt i32 %70, %71, !llfi_index !1736
  br i1 %72, label %73, label %96, !llfi_index !1737

; <label>:73                                      ; preds = %69
  %74 = load double* %2, align 8, !llfi_index !1738
  %75 = load i32* %i2, align 4, !llfi_index !1739
  %76 = sext i32 %75 to i64, !llfi_index !1740
  %77 = load double** %3, align 8, !llfi_index !1741
  %78 = getelementptr inbounds double* %77, i64 %76, !llfi_index !1742
  %79 = load double* %78, align 8, !llfi_index !1743
  %80 = fmul double %74, %79, !llfi_index !1744
  %81 = load double* %4, align 8, !llfi_index !1745
  %82 = load i32* %i2, align 4, !llfi_index !1746
  %83 = sext i32 %82 to i64, !llfi_index !1747
  %84 = load double** %5, align 8, !llfi_index !1748
  %85 = getelementptr inbounds double* %84, i64 %83, !llfi_index !1749
  %86 = load double* %85, align 8, !llfi_index !1750
  %87 = fmul double %81, %86, !llfi_index !1751
  %88 = fadd double %80, %87, !llfi_index !1752
  %89 = load i32* %i2, align 4, !llfi_index !1753
  %90 = sext i32 %89 to i64, !llfi_index !1754
  %91 = load double** %6, align 8, !llfi_index !1755
  %92 = getelementptr inbounds double* %91, i64 %90, !llfi_index !1756
  store double %88, double* %92, align 8, !llfi_index !1757
  br label %93, !llfi_index !1758

; <label>:93                                      ; preds = %73
  %94 = load i32* %i2, align 4, !llfi_index !1759
  %95 = add nsw i32 %94, 1, !llfi_index !1760
  store i32 %95, i32* %i2, align 4, !llfi_index !1761
  br label %69, !llfi_index !1762

; <label>:96                                      ; preds = %69
  br label %97, !llfi_index !1763

; <label>:97                                      ; preds = %96, %67
  br label %98, !llfi_index !1764

; <label>:98                                      ; preds = %97, %36
  ret i32 0, !llfi_index !1765
}

; Function Attrs: nounwind uwtable
define i32 @_Z4ddotiPKdS0_PdRd(i32 %n, double* %x, double* %y, double* %result, double* %time_allreduce) #9 {
  %1 = alloca i32, align 4, !llfi_index !1766
  %2 = alloca double*, align 8, !llfi_index !1767
  %3 = alloca double*, align 8, !llfi_index !1768
  %4 = alloca double*, align 8, !llfi_index !1769
  %5 = alloca double*, align 8, !llfi_index !1770
  %local_result = alloca double, align 8, !llfi_index !1771
  %i = alloca i32, align 4, !llfi_index !1772
  %i1 = alloca i32, align 4, !llfi_index !1773
  store i32 %n, i32* %1, align 4, !llfi_index !1774
  store double* %x, double** %2, align 8, !llfi_index !1775
  store double* %y, double** %3, align 8, !llfi_index !1776
  store double* %result, double** %4, align 8, !llfi_index !1777
  store double* %time_allreduce, double** %5, align 8, !llfi_index !1778
  store double 0.000000e+00, double* %local_result, align 8, !llfi_index !1779
  %6 = load double** %3, align 8, !llfi_index !1780
  %7 = load double** %2, align 8, !llfi_index !1781
  %8 = icmp eq double* %6, %7, !llfi_index !1782
  br i1 %8, label %9, label %32, !llfi_index !1783

; <label>:9                                       ; preds = %0
  store i32 0, i32* %i, align 4, !llfi_index !1784
  br label %10, !llfi_index !1785

; <label>:10                                      ; preds = %28, %9
  %11 = load i32* %i, align 4, !llfi_index !1786
  %12 = load i32* %1, align 4, !llfi_index !1787
  %13 = icmp slt i32 %11, %12, !llfi_index !1788
  br i1 %13, label %14, label %31, !llfi_index !1789

; <label>:14                                      ; preds = %10
  %15 = load i32* %i, align 4, !llfi_index !1790
  %16 = sext i32 %15 to i64, !llfi_index !1791
  %17 = load double** %2, align 8, !llfi_index !1792
  %18 = getelementptr inbounds double* %17, i64 %16, !llfi_index !1793
  %19 = load double* %18, align 8, !llfi_index !1794
  %20 = load i32* %i, align 4, !llfi_index !1795
  %21 = sext i32 %20 to i64, !llfi_index !1796
  %22 = load double** %2, align 8, !llfi_index !1797
  %23 = getelementptr inbounds double* %22, i64 %21, !llfi_index !1798
  %24 = load double* %23, align 8, !llfi_index !1799
  %25 = fmul double %19, %24, !llfi_index !1800
  %26 = load double* %local_result, align 8, !llfi_index !1801
  %27 = fadd double %26, %25, !llfi_index !1802
  store double %27, double* %local_result, align 8, !llfi_index !1803
  br label %28, !llfi_index !1804

; <label>:28                                      ; preds = %14
  %29 = load i32* %i, align 4, !llfi_index !1805
  %30 = add nsw i32 %29, 1, !llfi_index !1806
  store i32 %30, i32* %i, align 4, !llfi_index !1807
  br label %10, !llfi_index !1808

; <label>:31                                      ; preds = %10
  br label %55, !llfi_index !1809

; <label>:32                                      ; preds = %0
  store i32 0, i32* %i1, align 4, !llfi_index !1810
  br label %33, !llfi_index !1811

; <label>:33                                      ; preds = %51, %32
  %34 = load i32* %i1, align 4, !llfi_index !1812
  %35 = load i32* %1, align 4, !llfi_index !1813
  %36 = icmp slt i32 %34, %35, !llfi_index !1814
  br i1 %36, label %37, label %54, !llfi_index !1815

; <label>:37                                      ; preds = %33
  %38 = load i32* %i1, align 4, !llfi_index !1816
  %39 = sext i32 %38 to i64, !llfi_index !1817
  %40 = load double** %2, align 8, !llfi_index !1818
  %41 = getelementptr inbounds double* %40, i64 %39, !llfi_index !1819
  %42 = load double* %41, align 8, !llfi_index !1820
  %43 = load i32* %i1, align 4, !llfi_index !1821
  %44 = sext i32 %43 to i64, !llfi_index !1822
  %45 = load double** %3, align 8, !llfi_index !1823
  %46 = getelementptr inbounds double* %45, i64 %44, !llfi_index !1824
  %47 = load double* %46, align 8, !llfi_index !1825
  %48 = fmul double %42, %47, !llfi_index !1826
  %49 = load double* %local_result, align 8, !llfi_index !1827
  %50 = fadd double %49, %48, !llfi_index !1828
  store double %50, double* %local_result, align 8, !llfi_index !1829
  br label %51, !llfi_index !1830

; <label>:51                                      ; preds = %37
  %52 = load i32* %i1, align 4, !llfi_index !1831
  %53 = add nsw i32 %52, 1, !llfi_index !1832
  store i32 %53, i32* %i1, align 4, !llfi_index !1833
  br label %33, !llfi_index !1834

; <label>:54                                      ; preds = %33
  br label %55, !llfi_index !1835

; <label>:55                                      ; preds = %54, %31
  %56 = load double* %local_result, align 8, !llfi_index !1836
  %57 = load double** %4, align 8, !llfi_index !1837
  store double %56, double* %57, align 8, !llfi_index !1838
  ret i32 0, !llfi_index !1839
}

attributes #0 = { "less-precise-fpmad"="false" "no-frame-pointer-elim"="true" "no-frame-pointer-elim-non-leaf" "no-infs-fp-math"="false" "no-nans-fp-math"="false" "stack-protector-buffer-size"="8" "unsafe-fp-math"="false" "use-soft-float"="false" }
attributes #1 = { nounwind }
attributes #2 = { uwtable "less-precise-fpmad"="false" "no-frame-pointer-elim"="true" "no-frame-pointer-elim-non-leaf" "no-infs-fp-math"="false" "no-nans-fp-math"="false" "stack-protector-buffer-size"="8" "unsafe-fp-math"="false" "use-soft-float"="false" }
attributes #3 = { noreturn nounwind "less-precise-fpmad"="false" "no-frame-pointer-elim"="true" "no-frame-pointer-elim-non-leaf" "no-infs-fp-math"="false" "no-nans-fp-math"="false" "stack-protector-buffer-size"="8" "unsafe-fp-math"="false" "use-soft-float"="false" }
attributes #4 = { nounwind readonly "less-precise-fpmad"="false" "no-frame-pointer-elim"="true" "no-frame-pointer-elim-non-leaf" "no-infs-fp-math"="false" "no-nans-fp-math"="false" "stack-protector-buffer-size"="8" "unsafe-fp-math"="false" "use-soft-float"="false" }
attributes #5 = { nobuiltin "less-precise-fpmad"="false" "no-frame-pointer-elim"="true" "no-frame-pointer-elim-non-leaf" "no-infs-fp-math"="false" "no-nans-fp-math"="false" "stack-protector-buffer-size"="8" "unsafe-fp-math"="false" "use-soft-float"="false" }
attributes #6 = { nounwind readnone }
attributes #7 = { nounwind "less-precise-fpmad"="false" "no-frame-pointer-elim"="true" "no-frame-pointer-elim-non-leaf" "no-infs-fp-math"="false" "no-nans-fp-math"="false" "stack-protector-buffer-size"="8" "unsafe-fp-math"="false" "use-soft-float"="false" }
attributes #8 = { nobuiltin nounwind "less-precise-fpmad"="false" "no-frame-pointer-elim"="true" "no-frame-pointer-elim-non-leaf" "no-infs-fp-math"="false" "no-nans-fp-math"="false" "stack-protector-buffer-size"="8" "unsafe-fp-math"="false" "use-soft-float"="false" }
attributes #9 = { nounwind uwtable "less-precise-fpmad"="false" "no-frame-pointer-elim"="true" "no-frame-pointer-elim-non-leaf" "no-infs-fp-math"="false" "no-nans-fp-math"="false" "stack-protector-buffer-size"="8" "unsafe-fp-math"="false" "use-soft-float"="false" }
attributes #10 = { noreturn nounwind }
attributes #11 = { nounwind readonly }
attributes #12 = { builtin }
attributes #13 = { builtin nounwind }

!llvm.ident = !{!0, !0, !0, !0, !0, !0, !0, !0}

!0 = metadata !{metadata !"clang version 3.4 (tags/RELEASE_34/final)"}
!1 = metadata !{i64 1}
!2 = metadata !{i64 2}
!3 = metadata !{i64 3}
!4 = metadata !{i64 4}
!5 = metadata !{i64 5}
!6 = metadata !{i64 6}
!7 = metadata !{i64 7}
!8 = metadata !{i64 8}
!9 = metadata !{i64 9}
!10 = metadata !{i64 10}
!11 = metadata !{i64 11}
!12 = metadata !{i64 12}
!13 = metadata !{i64 13}
!14 = metadata !{i64 14}
!15 = metadata !{i64 15}
!16 = metadata !{i64 16}
!17 = metadata !{i64 17}
!18 = metadata !{i64 18}
!19 = metadata !{i64 19}
!20 = metadata !{i64 20}
!21 = metadata !{i64 21}
!22 = metadata !{i64 22}
!23 = metadata !{i64 23}
!24 = metadata !{i64 24}
!25 = metadata !{i64 25}
!26 = metadata !{i64 26}
!27 = metadata !{i64 27}
!28 = metadata !{i64 28}
!29 = metadata !{i64 29}
!30 = metadata !{i64 30}
!31 = metadata !{i64 31}
!32 = metadata !{i64 32}
!33 = metadata !{i64 33}
!34 = metadata !{i64 34}
!35 = metadata !{i64 35}
!36 = metadata !{i64 36}
!37 = metadata !{i64 37}
!38 = metadata !{i64 38}
!39 = metadata !{i64 39}
!40 = metadata !{i64 40}
!41 = metadata !{i64 41}
!42 = metadata !{i64 42}
!43 = metadata !{i64 43}
!44 = metadata !{i64 44}
!45 = metadata !{i64 45}
!46 = metadata !{i64 46}
!47 = metadata !{i64 47}
!48 = metadata !{i64 48}
!49 = metadata !{i64 49}
!50 = metadata !{i64 50}
!51 = metadata !{i64 51}
!52 = metadata !{i64 52}
!53 = metadata !{i64 53}
!54 = metadata !{i64 54}
!55 = metadata !{i64 55}
!56 = metadata !{i64 56}
!57 = metadata !{i64 57}
!58 = metadata !{i64 58}
!59 = metadata !{i64 59}
!60 = metadata !{i64 60}
!61 = metadata !{i64 61}
!62 = metadata !{i64 62}
!63 = metadata !{i64 63}
!64 = metadata !{i64 64}
!65 = metadata !{i64 65}
!66 = metadata !{i64 66}
!67 = metadata !{i64 67}
!68 = metadata !{i64 68}
!69 = metadata !{i64 69}
!70 = metadata !{i64 70}
!71 = metadata !{i64 71}
!72 = metadata !{i64 72}
!73 = metadata !{i64 73}
!74 = metadata !{i64 74}
!75 = metadata !{i64 75}
!76 = metadata !{i64 76}
!77 = metadata !{i64 77}
!78 = metadata !{i64 78}
!79 = metadata !{i64 79}
!80 = metadata !{i64 80}
!81 = metadata !{i64 81}
!82 = metadata !{i64 82}
!83 = metadata !{i64 83}
!84 = metadata !{i64 84}
!85 = metadata !{i64 85}
!86 = metadata !{i64 86}
!87 = metadata !{i64 87}
!88 = metadata !{i64 88}
!89 = metadata !{i64 89}
!90 = metadata !{i64 90}
!91 = metadata !{i64 91}
!92 = metadata !{i64 92}
!93 = metadata !{i64 93}
!94 = metadata !{i64 94}
!95 = metadata !{i64 95}
!96 = metadata !{i64 96}
!97 = metadata !{i64 97}
!98 = metadata !{i64 98}
!99 = metadata !{i64 99}
!100 = metadata !{i64 100}
!101 = metadata !{i64 101}
!102 = metadata !{i64 102}
!103 = metadata !{i64 103}
!104 = metadata !{i64 104}
!105 = metadata !{i64 105}
!106 = metadata !{i64 106}
!107 = metadata !{i64 107}
!108 = metadata !{i64 108}
!109 = metadata !{i64 109}
!110 = metadata !{i64 110}
!111 = metadata !{i64 111}
!112 = metadata !{i64 112}
!113 = metadata !{i64 113}
!114 = metadata !{i64 114}
!115 = metadata !{i64 115}
!116 = metadata !{i64 116}
!117 = metadata !{i64 117}
!118 = metadata !{i64 118}
!119 = metadata !{i64 119}
!120 = metadata !{i64 120}
!121 = metadata !{i64 121}
!122 = metadata !{i64 122}
!123 = metadata !{i64 123}
!124 = metadata !{i64 124}
!125 = metadata !{i64 125}
!126 = metadata !{i64 126}
!127 = metadata !{i64 127}
!128 = metadata !{i64 128}
!129 = metadata !{i64 129}
!130 = metadata !{i64 130}
!131 = metadata !{i64 131}
!132 = metadata !{i64 132}
!133 = metadata !{i64 133}
!134 = metadata !{i64 134}
!135 = metadata !{i64 135}
!136 = metadata !{i64 136}
!137 = metadata !{i64 137}
!138 = metadata !{i64 138}
!139 = metadata !{i64 139}
!140 = metadata !{i64 140}
!141 = metadata !{i64 141}
!142 = metadata !{i64 142}
!143 = metadata !{i64 143}
!144 = metadata !{i64 144}
!145 = metadata !{i64 145}
!146 = metadata !{i64 146}
!147 = metadata !{i64 147}
!148 = metadata !{i64 148}
!149 = metadata !{i64 149}
!150 = metadata !{i64 150}
!151 = metadata !{i64 151}
!152 = metadata !{i64 152}
!153 = metadata !{i64 153}
!154 = metadata !{i64 154}
!155 = metadata !{i64 155}
!156 = metadata !{i64 156}
!157 = metadata !{i64 157}
!158 = metadata !{i64 158}
!159 = metadata !{i64 159}
!160 = metadata !{i64 160}
!161 = metadata !{i64 161}
!162 = metadata !{i64 162}
!163 = metadata !{i64 163}
!164 = metadata !{i64 164}
!165 = metadata !{i64 165}
!166 = metadata !{i64 166}
!167 = metadata !{i64 167}
!168 = metadata !{i64 168}
!169 = metadata !{i64 169}
!170 = metadata !{i64 170}
!171 = metadata !{i64 171}
!172 = metadata !{i64 172}
!173 = metadata !{i64 173}
!174 = metadata !{i64 174}
!175 = metadata !{i64 175}
!176 = metadata !{i64 176}
!177 = metadata !{i64 177}
!178 = metadata !{i64 178}
!179 = metadata !{i64 179}
!180 = metadata !{i64 180}
!181 = metadata !{i64 181}
!182 = metadata !{i64 182}
!183 = metadata !{i64 183}
!184 = metadata !{i64 184}
!185 = metadata !{i64 185}
!186 = metadata !{i64 186}
!187 = metadata !{i64 187}
!188 = metadata !{i64 188}
!189 = metadata !{i64 189}
!190 = metadata !{i64 190}
!191 = metadata !{i64 191}
!192 = metadata !{i64 192}
!193 = metadata !{i64 193}
!194 = metadata !{i64 194}
!195 = metadata !{i64 195}
!196 = metadata !{i64 196}
!197 = metadata !{i64 197}
!198 = metadata !{i64 198}
!199 = metadata !{i64 199}
!200 = metadata !{i64 200}
!201 = metadata !{i64 201}
!202 = metadata !{i64 202}
!203 = metadata !{i64 203}
!204 = metadata !{i64 204}
!205 = metadata !{i64 205}
!206 = metadata !{i64 206}
!207 = metadata !{i64 207}
!208 = metadata !{i64 208}
!209 = metadata !{i64 209}
!210 = metadata !{i64 210}
!211 = metadata !{i64 211}
!212 = metadata !{i64 212}
!213 = metadata !{i64 213}
!214 = metadata !{i64 214}
!215 = metadata !{i64 215}
!216 = metadata !{i64 216}
!217 = metadata !{i64 217}
!218 = metadata !{i64 218}
!219 = metadata !{i64 219}
!220 = metadata !{i64 220}
!221 = metadata !{i64 221}
!222 = metadata !{i64 222}
!223 = metadata !{i64 223}
!224 = metadata !{i64 224}
!225 = metadata !{i64 225}
!226 = metadata !{i64 226}
!227 = metadata !{i64 227}
!228 = metadata !{i64 228}
!229 = metadata !{i64 229}
!230 = metadata !{i64 230}
!231 = metadata !{i64 231}
!232 = metadata !{i64 232}
!233 = metadata !{i64 233}
!234 = metadata !{i64 234}
!235 = metadata !{i64 235}
!236 = metadata !{i64 236}
!237 = metadata !{i64 237}
!238 = metadata !{i64 238}
!239 = metadata !{i64 239}
!240 = metadata !{i64 240}
!241 = metadata !{i64 241}
!242 = metadata !{i64 242}
!243 = metadata !{i64 243}
!244 = metadata !{i64 244}
!245 = metadata !{i64 245}
!246 = metadata !{i64 246}
!247 = metadata !{i64 247}
!248 = metadata !{i64 248}
!249 = metadata !{i64 249}
!250 = metadata !{i64 250}
!251 = metadata !{i64 251}
!252 = metadata !{i64 252}
!253 = metadata !{i64 253}
!254 = metadata !{i64 254}
!255 = metadata !{i64 255}
!256 = metadata !{i64 256}
!257 = metadata !{i64 257}
!258 = metadata !{i64 258}
!259 = metadata !{i64 259}
!260 = metadata !{i64 260}
!261 = metadata !{i64 261}
!262 = metadata !{i64 262}
!263 = metadata !{i64 263}
!264 = metadata !{i64 264}
!265 = metadata !{i64 265}
!266 = metadata !{i64 266}
!267 = metadata !{i64 267}
!268 = metadata !{i64 268}
!269 = metadata !{i64 269}
!270 = metadata !{i64 270}
!271 = metadata !{i64 271}
!272 = metadata !{i64 272}
!273 = metadata !{i64 273}
!274 = metadata !{i64 274}
!275 = metadata !{i64 275}
!276 = metadata !{i64 276}
!277 = metadata !{i64 277}
!278 = metadata !{i64 278}
!279 = metadata !{i64 279}
!280 = metadata !{i64 280}
!281 = metadata !{i64 281}
!282 = metadata !{i64 282}
!283 = metadata !{i64 283}
!284 = metadata !{i64 284}
!285 = metadata !{i64 285}
!286 = metadata !{i64 286}
!287 = metadata !{i64 287}
!288 = metadata !{i64 288}
!289 = metadata !{i64 289}
!290 = metadata !{i64 290}
!291 = metadata !{i64 291}
!292 = metadata !{i64 292}
!293 = metadata !{i64 293}
!294 = metadata !{i64 294}
!295 = metadata !{i64 295}
!296 = metadata !{i64 296}
!297 = metadata !{i64 297}
!298 = metadata !{i64 298}
!299 = metadata !{i64 299}
!300 = metadata !{i64 300}
!301 = metadata !{i64 301}
!302 = metadata !{i64 302}
!303 = metadata !{i64 303}
!304 = metadata !{i64 304}
!305 = metadata !{i64 305}
!306 = metadata !{i64 306}
!307 = metadata !{i64 307}
!308 = metadata !{i64 308}
!309 = metadata !{i64 309}
!310 = metadata !{i64 310}
!311 = metadata !{i64 311}
!312 = metadata !{i64 312}
!313 = metadata !{i64 313}
!314 = metadata !{i64 314}
!315 = metadata !{i64 315}
!316 = metadata !{i64 316}
!317 = metadata !{i64 317}
!318 = metadata !{i64 318}
!319 = metadata !{i64 319}
!320 = metadata !{i64 320}
!321 = metadata !{i64 321}
!322 = metadata !{i64 322}
!323 = metadata !{i64 323}
!324 = metadata !{i64 324}
!325 = metadata !{i64 325}
!326 = metadata !{i64 326}
!327 = metadata !{i64 327}
!328 = metadata !{i64 328}
!329 = metadata !{i64 329}
!330 = metadata !{i64 330}
!331 = metadata !{i64 331}
!332 = metadata !{i64 332}
!333 = metadata !{i64 333}
!334 = metadata !{i64 334}
!335 = metadata !{i64 335}
!336 = metadata !{i64 336}
!337 = metadata !{i64 337}
!338 = metadata !{i64 338}
!339 = metadata !{i64 339}
!340 = metadata !{i64 340}
!341 = metadata !{i64 341}
!342 = metadata !{i64 342}
!343 = metadata !{i64 343}
!344 = metadata !{i64 344}
!345 = metadata !{i64 345}
!346 = metadata !{i64 346}
!347 = metadata !{i64 347}
!348 = metadata !{i64 348}
!349 = metadata !{i64 349}
!350 = metadata !{i64 350}
!351 = metadata !{i64 351}
!352 = metadata !{i64 352}
!353 = metadata !{i64 353}
!354 = metadata !{i64 354}
!355 = metadata !{i64 355}
!356 = metadata !{i64 356}
!357 = metadata !{i64 357}
!358 = metadata !{i64 358}
!359 = metadata !{i64 359}
!360 = metadata !{i64 360}
!361 = metadata !{i64 361}
!362 = metadata !{i64 362}
!363 = metadata !{i64 363}
!364 = metadata !{i64 364}
!365 = metadata !{i64 365}
!366 = metadata !{i64 366}
!367 = metadata !{i64 367}
!368 = metadata !{i64 368}
!369 = metadata !{i64 369}
!370 = metadata !{i64 370}
!371 = metadata !{i64 371}
!372 = metadata !{i64 372}
!373 = metadata !{i64 373}
!374 = metadata !{i64 374}
!375 = metadata !{i64 375}
!376 = metadata !{i64 376}
!377 = metadata !{i64 377}
!378 = metadata !{i64 378}
!379 = metadata !{i64 379}
!380 = metadata !{i64 380}
!381 = metadata !{i64 381}
!382 = metadata !{i64 382}
!383 = metadata !{i64 383}
!384 = metadata !{i64 384}
!385 = metadata !{i64 385}
!386 = metadata !{i64 386}
!387 = metadata !{i64 387}
!388 = metadata !{i64 388}
!389 = metadata !{i64 389}
!390 = metadata !{i64 390}
!391 = metadata !{i64 391}
!392 = metadata !{i64 392}
!393 = metadata !{i64 393}
!394 = metadata !{i64 394}
!395 = metadata !{i64 395}
!396 = metadata !{i64 396}
!397 = metadata !{i64 397}
!398 = metadata !{i64 398}
!399 = metadata !{i64 399}
!400 = metadata !{i64 400}
!401 = metadata !{i64 401}
!402 = metadata !{i64 402}
!403 = metadata !{i64 403}
!404 = metadata !{i64 404}
!405 = metadata !{i64 405}
!406 = metadata !{i64 406}
!407 = metadata !{i64 407}
!408 = metadata !{i64 408}
!409 = metadata !{i64 409}
!410 = metadata !{i64 410}
!411 = metadata !{i64 411}
!412 = metadata !{i64 412}
!413 = metadata !{i64 413}
!414 = metadata !{i64 414}
!415 = metadata !{i64 415}
!416 = metadata !{i64 416}
!417 = metadata !{i64 417}
!418 = metadata !{i64 418}
!419 = metadata !{i64 419}
!420 = metadata !{i64 420}
!421 = metadata !{i64 421}
!422 = metadata !{i64 422}
!423 = metadata !{i64 423}
!424 = metadata !{i64 424}
!425 = metadata !{i64 425}
!426 = metadata !{i64 426}
!427 = metadata !{i64 427}
!428 = metadata !{i64 428}
!429 = metadata !{i64 429}
!430 = metadata !{i64 430}
!431 = metadata !{i64 431}
!432 = metadata !{i64 432}
!433 = metadata !{i64 433}
!434 = metadata !{i64 434}
!435 = metadata !{i64 435}
!436 = metadata !{i64 436}
!437 = metadata !{i64 437}
!438 = metadata !{i64 438}
!439 = metadata !{i64 439}
!440 = metadata !{i64 440}
!441 = metadata !{i64 441}
!442 = metadata !{i64 442}
!443 = metadata !{i64 443}
!444 = metadata !{i64 444}
!445 = metadata !{i64 445}
!446 = metadata !{i64 446}
!447 = metadata !{i64 447}
!448 = metadata !{i64 448}
!449 = metadata !{i64 449}
!450 = metadata !{i64 450}
!451 = metadata !{i64 451}
!452 = metadata !{i64 452}
!453 = metadata !{i64 453}
!454 = metadata !{i64 454}
!455 = metadata !{i64 455}
!456 = metadata !{i64 456}
!457 = metadata !{i64 457}
!458 = metadata !{i64 458}
!459 = metadata !{i64 459}
!460 = metadata !{i64 460}
!461 = metadata !{i64 461}
!462 = metadata !{i64 462}
!463 = metadata !{i64 463}
!464 = metadata !{i64 464}
!465 = metadata !{i64 465}
!466 = metadata !{i64 466}
!467 = metadata !{i64 467}
!468 = metadata !{i64 468}
!469 = metadata !{i64 469}
!470 = metadata !{i64 470}
!471 = metadata !{i64 471}
!472 = metadata !{i64 472}
!473 = metadata !{i64 473}
!474 = metadata !{i64 474}
!475 = metadata !{i64 475}
!476 = metadata !{i64 476}
!477 = metadata !{i64 477}
!478 = metadata !{i64 478}
!479 = metadata !{i64 479}
!480 = metadata !{i64 480}
!481 = metadata !{i64 481}
!482 = metadata !{i64 482}
!483 = metadata !{i64 483}
!484 = metadata !{i64 484}
!485 = metadata !{i64 485}
!486 = metadata !{i64 486}
!487 = metadata !{i64 487}
!488 = metadata !{i64 488}
!489 = metadata !{i64 489}
!490 = metadata !{i64 490}
!491 = metadata !{i64 491}
!492 = metadata !{i64 492}
!493 = metadata !{i64 493}
!494 = metadata !{i64 494}
!495 = metadata !{i64 495}
!496 = metadata !{i64 496}
!497 = metadata !{i64 497}
!498 = metadata !{i64 498}
!499 = metadata !{i64 499}
!500 = metadata !{i64 500}
!501 = metadata !{i64 501}
!502 = metadata !{i64 502}
!503 = metadata !{i64 503}
!504 = metadata !{i64 504}
!505 = metadata !{i64 505}
!506 = metadata !{i64 506}
!507 = metadata !{i64 507}
!508 = metadata !{i64 508}
!509 = metadata !{i64 509}
!510 = metadata !{i64 510}
!511 = metadata !{i64 511}
!512 = metadata !{i64 512}
!513 = metadata !{i64 513}
!514 = metadata !{i64 514}
!515 = metadata !{i64 515}
!516 = metadata !{i64 516}
!517 = metadata !{i64 517}
!518 = metadata !{i64 518}
!519 = metadata !{i64 519}
!520 = metadata !{i64 520}
!521 = metadata !{i64 521}
!522 = metadata !{i64 522}
!523 = metadata !{i64 523}
!524 = metadata !{i64 524}
!525 = metadata !{i64 525}
!526 = metadata !{i64 526}
!527 = metadata !{i64 527}
!528 = metadata !{i64 528}
!529 = metadata !{i64 529}
!530 = metadata !{i64 530}
!531 = metadata !{i64 531}
!532 = metadata !{i64 532}
!533 = metadata !{i64 533}
!534 = metadata !{i64 534}
!535 = metadata !{i64 535}
!536 = metadata !{i64 536}
!537 = metadata !{i64 537}
!538 = metadata !{i64 538}
!539 = metadata !{i64 539}
!540 = metadata !{i64 540}
!541 = metadata !{i64 541}
!542 = metadata !{i64 542}
!543 = metadata !{i64 543}
!544 = metadata !{i64 544}
!545 = metadata !{i64 545}
!546 = metadata !{i64 546}
!547 = metadata !{i64 547}
!548 = metadata !{i64 548}
!549 = metadata !{i64 549}
!550 = metadata !{i64 550}
!551 = metadata !{i64 551}
!552 = metadata !{i64 552}
!553 = metadata !{i64 553}
!554 = metadata !{i64 554}
!555 = metadata !{i64 555}
!556 = metadata !{i64 556}
!557 = metadata !{i64 557}
!558 = metadata !{i64 558}
!559 = metadata !{i64 559}
!560 = metadata !{i64 560}
!561 = metadata !{i64 561}
!562 = metadata !{i64 562}
!563 = metadata !{i64 563}
!564 = metadata !{i64 564}
!565 = metadata !{i64 565}
!566 = metadata !{i64 566}
!567 = metadata !{i64 567}
!568 = metadata !{i64 568}
!569 = metadata !{i64 569}
!570 = metadata !{i64 570}
!571 = metadata !{i64 571}
!572 = metadata !{i64 572}
!573 = metadata !{i64 573}
!574 = metadata !{i64 574}
!575 = metadata !{i64 575}
!576 = metadata !{i64 576}
!577 = metadata !{i64 577}
!578 = metadata !{i64 578}
!579 = metadata !{i64 579}
!580 = metadata !{i64 580}
!581 = metadata !{i64 581}
!582 = metadata !{i64 582}
!583 = metadata !{i64 583}
!584 = metadata !{i64 584}
!585 = metadata !{i64 585}
!586 = metadata !{i64 586}
!587 = metadata !{i64 587}
!588 = metadata !{i64 588}
!589 = metadata !{i64 589}
!590 = metadata !{i64 590}
!591 = metadata !{i64 591}
!592 = metadata !{i64 592}
!593 = metadata !{i64 593}
!594 = metadata !{i64 594}
!595 = metadata !{i64 595}
!596 = metadata !{i64 596}
!597 = metadata !{i64 597}
!598 = metadata !{i64 598}
!599 = metadata !{i64 599}
!600 = metadata !{i64 600}
!601 = metadata !{i64 601}
!602 = metadata !{i64 602}
!603 = metadata !{i64 603}
!604 = metadata !{i64 604}
!605 = metadata !{i64 605}
!606 = metadata !{i64 606}
!607 = metadata !{i64 607}
!608 = metadata !{i64 608}
!609 = metadata !{i64 609}
!610 = metadata !{i64 610}
!611 = metadata !{i64 611}
!612 = metadata !{i64 612}
!613 = metadata !{i64 613}
!614 = metadata !{i64 614}
!615 = metadata !{i64 615}
!616 = metadata !{i64 616}
!617 = metadata !{i64 617}
!618 = metadata !{i64 618}
!619 = metadata !{i64 619}
!620 = metadata !{i64 620}
!621 = metadata !{i64 621}
!622 = metadata !{i64 622}
!623 = metadata !{i64 623}
!624 = metadata !{i64 624}
!625 = metadata !{i64 625}
!626 = metadata !{i64 626}
!627 = metadata !{i64 627}
!628 = metadata !{i64 628}
!629 = metadata !{i64 629}
!630 = metadata !{i64 630}
!631 = metadata !{i64 631}
!632 = metadata !{i64 632}
!633 = metadata !{i64 633}
!634 = metadata !{i64 634}
!635 = metadata !{i64 635}
!636 = metadata !{i64 636}
!637 = metadata !{i64 637}
!638 = metadata !{i64 638}
!639 = metadata !{i64 639}
!640 = metadata !{i64 640}
!641 = metadata !{i64 641}
!642 = metadata !{i64 642}
!643 = metadata !{i64 643}
!644 = metadata !{i64 644}
!645 = metadata !{i64 645}
!646 = metadata !{i64 646}
!647 = metadata !{i64 647}
!648 = metadata !{i64 648}
!649 = metadata !{i64 649}
!650 = metadata !{i64 650}
!651 = metadata !{i64 651}
!652 = metadata !{i64 652}
!653 = metadata !{i64 653}
!654 = metadata !{i64 654}
!655 = metadata !{i64 655}
!656 = metadata !{i64 656}
!657 = metadata !{i64 657}
!658 = metadata !{i64 658}
!659 = metadata !{i64 659}
!660 = metadata !{i64 660}
!661 = metadata !{i64 661}
!662 = metadata !{i64 662}
!663 = metadata !{i64 663}
!664 = metadata !{i64 664}
!665 = metadata !{i64 665}
!666 = metadata !{i64 666}
!667 = metadata !{i64 667}
!668 = metadata !{i64 668}
!669 = metadata !{i64 669}
!670 = metadata !{i64 670}
!671 = metadata !{i64 671}
!672 = metadata !{i64 672}
!673 = metadata !{i64 673}
!674 = metadata !{i64 674}
!675 = metadata !{i64 675}
!676 = metadata !{i64 676}
!677 = metadata !{i64 677}
!678 = metadata !{i64 678}
!679 = metadata !{i64 679}
!680 = metadata !{i64 680}
!681 = metadata !{i64 681}
!682 = metadata !{i64 682}
!683 = metadata !{i64 683}
!684 = metadata !{i64 684}
!685 = metadata !{i64 685}
!686 = metadata !{i64 686}
!687 = metadata !{i64 687}
!688 = metadata !{i64 688}
!689 = metadata !{i64 689}
!690 = metadata !{i64 690}
!691 = metadata !{i64 691}
!692 = metadata !{i64 692}
!693 = metadata !{i64 693}
!694 = metadata !{i64 694}
!695 = metadata !{i64 695}
!696 = metadata !{i64 696}
!697 = metadata !{i64 697}
!698 = metadata !{i64 698}
!699 = metadata !{i64 699}
!700 = metadata !{i64 700}
!701 = metadata !{i64 701}
!702 = metadata !{i64 702}
!703 = metadata !{i64 703}
!704 = metadata !{i64 704}
!705 = metadata !{i64 705}
!706 = metadata !{i64 706}
!707 = metadata !{i64 707}
!708 = metadata !{i64 708}
!709 = metadata !{i64 709}
!710 = metadata !{i64 710}
!711 = metadata !{i64 711}
!712 = metadata !{i64 712}
!713 = metadata !{i64 713}
!714 = metadata !{i64 714}
!715 = metadata !{i64 715}
!716 = metadata !{i64 716}
!717 = metadata !{i64 717}
!718 = metadata !{i64 718}
!719 = metadata !{i64 719}
!720 = metadata !{i64 720}
!721 = metadata !{i64 721}
!722 = metadata !{i64 722}
!723 = metadata !{i64 723}
!724 = metadata !{i64 724}
!725 = metadata !{i64 725}
!726 = metadata !{i64 726}
!727 = metadata !{i64 727}
!728 = metadata !{i64 728}
!729 = metadata !{i64 729}
!730 = metadata !{i64 730}
!731 = metadata !{i64 731}
!732 = metadata !{i64 732}
!733 = metadata !{i64 733}
!734 = metadata !{i64 734}
!735 = metadata !{i64 735}
!736 = metadata !{i64 736}
!737 = metadata !{i64 737}
!738 = metadata !{i64 738}
!739 = metadata !{i64 739}
!740 = metadata !{i64 740}
!741 = metadata !{i64 741}
!742 = metadata !{i64 742}
!743 = metadata !{i64 743}
!744 = metadata !{i64 744}
!745 = metadata !{i64 745}
!746 = metadata !{i64 746}
!747 = metadata !{i64 747}
!748 = metadata !{i64 748}
!749 = metadata !{i64 749}
!750 = metadata !{i64 750}
!751 = metadata !{i64 751}
!752 = metadata !{i64 752}
!753 = metadata !{i64 753}
!754 = metadata !{i64 754}
!755 = metadata !{i64 755}
!756 = metadata !{i64 756}
!757 = metadata !{i64 757}
!758 = metadata !{i64 758}
!759 = metadata !{i64 759}
!760 = metadata !{i64 760}
!761 = metadata !{i64 761}
!762 = metadata !{i64 762}
!763 = metadata !{i64 763}
!764 = metadata !{i64 764}
!765 = metadata !{i64 765}
!766 = metadata !{i64 766}
!767 = metadata !{i64 767}
!768 = metadata !{i64 768}
!769 = metadata !{i64 769}
!770 = metadata !{i64 770}
!771 = metadata !{i64 771}
!772 = metadata !{i64 772}
!773 = metadata !{i64 773}
!774 = metadata !{i64 774}
!775 = metadata !{i64 775}
!776 = metadata !{i64 776}
!777 = metadata !{i64 777}
!778 = metadata !{i64 778}
!779 = metadata !{i64 779}
!780 = metadata !{i64 780}
!781 = metadata !{i64 781}
!782 = metadata !{i64 782}
!783 = metadata !{i64 783}
!784 = metadata !{i64 784}
!785 = metadata !{i64 785}
!786 = metadata !{i64 786}
!787 = metadata !{i64 787}
!788 = metadata !{i64 788}
!789 = metadata !{i64 789}
!790 = metadata !{i64 790}
!791 = metadata !{i64 791}
!792 = metadata !{i64 792}
!793 = metadata !{i64 793}
!794 = metadata !{i64 794}
!795 = metadata !{i64 795}
!796 = metadata !{i64 796}
!797 = metadata !{i64 797}
!798 = metadata !{i64 798}
!799 = metadata !{i64 799}
!800 = metadata !{i64 800}
!801 = metadata !{i64 801}
!802 = metadata !{i64 802}
!803 = metadata !{i64 803}
!804 = metadata !{i64 804}
!805 = metadata !{i64 805}
!806 = metadata !{i64 806}
!807 = metadata !{i64 807}
!808 = metadata !{i64 808}
!809 = metadata !{i64 809}
!810 = metadata !{i64 810}
!811 = metadata !{i64 811}
!812 = metadata !{i64 812}
!813 = metadata !{i64 813}
!814 = metadata !{i64 814}
!815 = metadata !{i64 815}
!816 = metadata !{i64 816}
!817 = metadata !{i64 817}
!818 = metadata !{i64 818}
!819 = metadata !{i64 819}
!820 = metadata !{i64 820}
!821 = metadata !{i64 821}
!822 = metadata !{i64 822}
!823 = metadata !{i64 823}
!824 = metadata !{i64 824}
!825 = metadata !{i64 825}
!826 = metadata !{i64 826}
!827 = metadata !{i64 827}
!828 = metadata !{i64 828}
!829 = metadata !{i64 829}
!830 = metadata !{i64 830}
!831 = metadata !{i64 831}
!832 = metadata !{i64 832}
!833 = metadata !{i64 833}
!834 = metadata !{i64 834}
!835 = metadata !{i64 835}
!836 = metadata !{i64 836}
!837 = metadata !{i64 837}
!838 = metadata !{i64 838}
!839 = metadata !{i64 839}
!840 = metadata !{i64 840}
!841 = metadata !{i64 841}
!842 = metadata !{i64 842}
!843 = metadata !{i64 843}
!844 = metadata !{i64 844}
!845 = metadata !{i64 845}
!846 = metadata !{i64 846}
!847 = metadata !{i64 847}
!848 = metadata !{i64 848}
!849 = metadata !{i64 849}
!850 = metadata !{i64 850}
!851 = metadata !{i64 851}
!852 = metadata !{i64 852}
!853 = metadata !{i64 853}
!854 = metadata !{i64 854}
!855 = metadata !{i64 855}
!856 = metadata !{i64 856}
!857 = metadata !{i64 857}
!858 = metadata !{i64 858}
!859 = metadata !{i64 859}
!860 = metadata !{i64 860}
!861 = metadata !{i64 861}
!862 = metadata !{i64 862}
!863 = metadata !{i64 863}
!864 = metadata !{i64 864}
!865 = metadata !{i64 865}
!866 = metadata !{i64 866}
!867 = metadata !{i64 867}
!868 = metadata !{i64 868}
!869 = metadata !{i64 869}
!870 = metadata !{i64 870}
!871 = metadata !{i64 871}
!872 = metadata !{i64 872}
!873 = metadata !{i64 873}
!874 = metadata !{i64 874}
!875 = metadata !{i64 875}
!876 = metadata !{i64 876}
!877 = metadata !{i64 877}
!878 = metadata !{i64 878}
!879 = metadata !{i64 879}
!880 = metadata !{i64 880}
!881 = metadata !{i64 881}
!882 = metadata !{i64 882}
!883 = metadata !{i64 883}
!884 = metadata !{i64 884}
!885 = metadata !{i64 885}
!886 = metadata !{i64 886}
!887 = metadata !{i64 887}
!888 = metadata !{i64 888}
!889 = metadata !{i64 889}
!890 = metadata !{i64 890}
!891 = metadata !{i64 891}
!892 = metadata !{i64 892}
!893 = metadata !{i64 893}
!894 = metadata !{i64 894}
!895 = metadata !{i64 895}
!896 = metadata !{i64 896}
!897 = metadata !{i64 897}
!898 = metadata !{i64 898}
!899 = metadata !{i64 899}
!900 = metadata !{i64 900}
!901 = metadata !{i64 901}
!902 = metadata !{i64 902}
!903 = metadata !{i64 903}
!904 = metadata !{i64 904}
!905 = metadata !{i64 905}
!906 = metadata !{i64 906}
!907 = metadata !{i64 907}
!908 = metadata !{i64 908}
!909 = metadata !{i64 909}
!910 = metadata !{i64 910}
!911 = metadata !{i64 911}
!912 = metadata !{i64 912}
!913 = metadata !{i64 913}
!914 = metadata !{i64 914}
!915 = metadata !{i64 915}
!916 = metadata !{i64 916}
!917 = metadata !{i64 917}
!918 = metadata !{i64 918}
!919 = metadata !{i64 919}
!920 = metadata !{i64 920}
!921 = metadata !{i64 921}
!922 = metadata !{i64 922}
!923 = metadata !{i64 923}
!924 = metadata !{i64 924}
!925 = metadata !{i64 925}
!926 = metadata !{i64 926}
!927 = metadata !{i64 927}
!928 = metadata !{i64 928}
!929 = metadata !{i64 929}
!930 = metadata !{i64 930}
!931 = metadata !{i64 931}
!932 = metadata !{i64 932}
!933 = metadata !{i64 933}
!934 = metadata !{i64 934}
!935 = metadata !{i64 935}
!936 = metadata !{i64 936}
!937 = metadata !{i64 937}
!938 = metadata !{i64 938}
!939 = metadata !{i64 939}
!940 = metadata !{i64 940}
!941 = metadata !{i64 941}
!942 = metadata !{i64 942}
!943 = metadata !{i64 943}
!944 = metadata !{i64 944}
!945 = metadata !{i64 945}
!946 = metadata !{i64 946}
!947 = metadata !{i64 947}
!948 = metadata !{i64 948}
!949 = metadata !{i64 949}
!950 = metadata !{i64 950}
!951 = metadata !{i64 951}
!952 = metadata !{i64 952}
!953 = metadata !{i64 953}
!954 = metadata !{i64 954}
!955 = metadata !{i64 955}
!956 = metadata !{i64 956}
!957 = metadata !{i64 957}
!958 = metadata !{i64 958}
!959 = metadata !{i64 959}
!960 = metadata !{i64 960}
!961 = metadata !{i64 961}
!962 = metadata !{i64 962}
!963 = metadata !{i64 963}
!964 = metadata !{i64 964}
!965 = metadata !{i64 965}
!966 = metadata !{i64 966}
!967 = metadata !{i64 967}
!968 = metadata !{i64 968}
!969 = metadata !{i64 969}
!970 = metadata !{i64 970}
!971 = metadata !{i64 971}
!972 = metadata !{i64 972}
!973 = metadata !{i64 973}
!974 = metadata !{i64 974}
!975 = metadata !{i64 975}
!976 = metadata !{i64 976}
!977 = metadata !{i64 977}
!978 = metadata !{i64 978}
!979 = metadata !{i64 979}
!980 = metadata !{i64 980}
!981 = metadata !{i64 981}
!982 = metadata !{i64 982}
!983 = metadata !{i64 983}
!984 = metadata !{i64 984}
!985 = metadata !{i64 985}
!986 = metadata !{i64 986}
!987 = metadata !{i64 987}
!988 = metadata !{i64 988}
!989 = metadata !{i64 989}
!990 = metadata !{i64 990}
!991 = metadata !{i64 991}
!992 = metadata !{i64 992}
!993 = metadata !{i64 993}
!994 = metadata !{i64 994}
!995 = metadata !{i64 995}
!996 = metadata !{i64 996}
!997 = metadata !{i64 997}
!998 = metadata !{i64 998}
!999 = metadata !{i64 999}
!1000 = metadata !{i64 1000}
!1001 = metadata !{i64 1001}
!1002 = metadata !{i64 1002}
!1003 = metadata !{i64 1003}
!1004 = metadata !{i64 1004}
!1005 = metadata !{i64 1005}
!1006 = metadata !{i64 1006}
!1007 = metadata !{i64 1007}
!1008 = metadata !{i64 1008}
!1009 = metadata !{i64 1009}
!1010 = metadata !{i64 1010}
!1011 = metadata !{i64 1011}
!1012 = metadata !{i64 1012}
!1013 = metadata !{i64 1013}
!1014 = metadata !{i64 1014}
!1015 = metadata !{i64 1015}
!1016 = metadata !{i64 1016}
!1017 = metadata !{i64 1017}
!1018 = metadata !{i64 1018}
!1019 = metadata !{i64 1019}
!1020 = metadata !{i64 1020}
!1021 = metadata !{i64 1021}
!1022 = metadata !{i64 1022}
!1023 = metadata !{i64 1023}
!1024 = metadata !{i64 1024}
!1025 = metadata !{i64 1025}
!1026 = metadata !{i64 1026}
!1027 = metadata !{i64 1027}
!1028 = metadata !{i64 1028}
!1029 = metadata !{i64 1029}
!1030 = metadata !{i64 1030}
!1031 = metadata !{i64 1031}
!1032 = metadata !{i64 1032}
!1033 = metadata !{i64 1033}
!1034 = metadata !{i64 1034}
!1035 = metadata !{i64 1035}
!1036 = metadata !{i64 1036}
!1037 = metadata !{i64 1037}
!1038 = metadata !{i64 1038}
!1039 = metadata !{i64 1039}
!1040 = metadata !{i64 1040}
!1041 = metadata !{i64 1041}
!1042 = metadata !{i64 1042}
!1043 = metadata !{i64 1043}
!1044 = metadata !{i64 1044}
!1045 = metadata !{i64 1045}
!1046 = metadata !{i64 1046}
!1047 = metadata !{i64 1047}
!1048 = metadata !{i64 1048}
!1049 = metadata !{i64 1049}
!1050 = metadata !{i64 1050}
!1051 = metadata !{i64 1051}
!1052 = metadata !{i64 1052}
!1053 = metadata !{i64 1053}
!1054 = metadata !{i64 1054}
!1055 = metadata !{i64 1055}
!1056 = metadata !{i64 1056}
!1057 = metadata !{i64 1057}
!1058 = metadata !{i64 1058}
!1059 = metadata !{i64 1059}
!1060 = metadata !{i64 1060}
!1061 = metadata !{i64 1061}
!1062 = metadata !{i64 1062}
!1063 = metadata !{i64 1063}
!1064 = metadata !{i64 1064}
!1065 = metadata !{i64 1065}
!1066 = metadata !{i64 1066}
!1067 = metadata !{i64 1067}
!1068 = metadata !{i64 1068}
!1069 = metadata !{i64 1069}
!1070 = metadata !{i64 1070}
!1071 = metadata !{i64 1071}
!1072 = metadata !{i64 1072}
!1073 = metadata !{i64 1073}
!1074 = metadata !{i64 1074}
!1075 = metadata !{i64 1075}
!1076 = metadata !{i64 1076}
!1077 = metadata !{i64 1077}
!1078 = metadata !{i64 1078}
!1079 = metadata !{i64 1079}
!1080 = metadata !{i64 1080}
!1081 = metadata !{i64 1081}
!1082 = metadata !{i64 1082}
!1083 = metadata !{i64 1083}
!1084 = metadata !{i64 1084}
!1085 = metadata !{i64 1085}
!1086 = metadata !{i64 1086}
!1087 = metadata !{i64 1087}
!1088 = metadata !{i64 1088}
!1089 = metadata !{i64 1089}
!1090 = metadata !{i64 1090}
!1091 = metadata !{i64 1091}
!1092 = metadata !{i64 1092}
!1093 = metadata !{i64 1093}
!1094 = metadata !{i64 1094}
!1095 = metadata !{i64 1095}
!1096 = metadata !{i64 1096}
!1097 = metadata !{i64 1097}
!1098 = metadata !{i64 1098}
!1099 = metadata !{i64 1099}
!1100 = metadata !{i64 1100}
!1101 = metadata !{i64 1101}
!1102 = metadata !{i64 1102}
!1103 = metadata !{i64 1103}
!1104 = metadata !{i64 1104}
!1105 = metadata !{i64 1105}
!1106 = metadata !{i64 1106}
!1107 = metadata !{i64 1107}
!1108 = metadata !{i64 1108}
!1109 = metadata !{i64 1109}
!1110 = metadata !{i64 1110}
!1111 = metadata !{i64 1111}
!1112 = metadata !{i64 1112}
!1113 = metadata !{i64 1113}
!1114 = metadata !{i64 1114}
!1115 = metadata !{i64 1115}
!1116 = metadata !{i64 1116}
!1117 = metadata !{i64 1117}
!1118 = metadata !{i64 1118}
!1119 = metadata !{i64 1119}
!1120 = metadata !{i64 1120}
!1121 = metadata !{i64 1121}
!1122 = metadata !{i64 1122}
!1123 = metadata !{i64 1123}
!1124 = metadata !{i64 1124}
!1125 = metadata !{i64 1125}
!1126 = metadata !{i64 1126}
!1127 = metadata !{i64 1127}
!1128 = metadata !{i64 1128}
!1129 = metadata !{i64 1129}
!1130 = metadata !{i64 1130}
!1131 = metadata !{i64 1131}
!1132 = metadata !{i64 1132}
!1133 = metadata !{i64 1133}
!1134 = metadata !{i64 1134}
!1135 = metadata !{i64 1135}
!1136 = metadata !{i64 1136}
!1137 = metadata !{i64 1137}
!1138 = metadata !{i64 1138}
!1139 = metadata !{i64 1139}
!1140 = metadata !{i64 1140}
!1141 = metadata !{i64 1141}
!1142 = metadata !{i64 1142}
!1143 = metadata !{i64 1143}
!1144 = metadata !{i64 1144}
!1145 = metadata !{i64 1145}
!1146 = metadata !{i64 1146}
!1147 = metadata !{i64 1147}
!1148 = metadata !{i64 1148}
!1149 = metadata !{i64 1149}
!1150 = metadata !{i64 1150}
!1151 = metadata !{i64 1151}
!1152 = metadata !{i64 1152}
!1153 = metadata !{i64 1153}
!1154 = metadata !{i64 1154}
!1155 = metadata !{i64 1155}
!1156 = metadata !{i64 1156}
!1157 = metadata !{i64 1157}
!1158 = metadata !{i64 1158}
!1159 = metadata !{i64 1159}
!1160 = metadata !{i64 1160}
!1161 = metadata !{i64 1161}
!1162 = metadata !{i64 1162}
!1163 = metadata !{i64 1163}
!1164 = metadata !{i64 1164}
!1165 = metadata !{i64 1165}
!1166 = metadata !{i64 1166}
!1167 = metadata !{i64 1167}
!1168 = metadata !{i64 1168}
!1169 = metadata !{i64 1169}
!1170 = metadata !{i64 1170}
!1171 = metadata !{i64 1171}
!1172 = metadata !{i64 1172}
!1173 = metadata !{i64 1173}
!1174 = metadata !{i64 1174}
!1175 = metadata !{i64 1175}
!1176 = metadata !{i64 1176}
!1177 = metadata !{i64 1177}
!1178 = metadata !{i64 1178}
!1179 = metadata !{i64 1179}
!1180 = metadata !{i64 1180}
!1181 = metadata !{i64 1181}
!1182 = metadata !{i64 1182}
!1183 = metadata !{i64 1183}
!1184 = metadata !{i64 1184}
!1185 = metadata !{i64 1185}
!1186 = metadata !{i64 1186}
!1187 = metadata !{i64 1187}
!1188 = metadata !{i64 1188}
!1189 = metadata !{i64 1189}
!1190 = metadata !{i64 1190}
!1191 = metadata !{i64 1191}
!1192 = metadata !{i64 1192}
!1193 = metadata !{i64 1193}
!1194 = metadata !{i64 1194}
!1195 = metadata !{i64 1195}
!1196 = metadata !{i64 1196}
!1197 = metadata !{i64 1197}
!1198 = metadata !{i64 1198}
!1199 = metadata !{i64 1199}
!1200 = metadata !{i64 1200}
!1201 = metadata !{i64 1201}
!1202 = metadata !{i64 1202}
!1203 = metadata !{i64 1203}
!1204 = metadata !{i64 1204}
!1205 = metadata !{i64 1205}
!1206 = metadata !{i64 1206}
!1207 = metadata !{i64 1207}
!1208 = metadata !{i64 1208}
!1209 = metadata !{i64 1209}
!1210 = metadata !{i64 1210}
!1211 = metadata !{i64 1211}
!1212 = metadata !{i64 1212}
!1213 = metadata !{i64 1213}
!1214 = metadata !{i64 1214}
!1215 = metadata !{i64 1215}
!1216 = metadata !{i64 1216}
!1217 = metadata !{i64 1217}
!1218 = metadata !{i64 1218}
!1219 = metadata !{i64 1219}
!1220 = metadata !{i64 1220}
!1221 = metadata !{i64 1221}
!1222 = metadata !{i64 1222}
!1223 = metadata !{i64 1223}
!1224 = metadata !{i64 1224}
!1225 = metadata !{i64 1225}
!1226 = metadata !{i64 1226}
!1227 = metadata !{i64 1227}
!1228 = metadata !{i64 1228}
!1229 = metadata !{i64 1229}
!1230 = metadata !{i64 1230}
!1231 = metadata !{i64 1231}
!1232 = metadata !{i64 1232}
!1233 = metadata !{i64 1233}
!1234 = metadata !{i64 1234}
!1235 = metadata !{i64 1235}
!1236 = metadata !{i64 1236}
!1237 = metadata !{i64 1237}
!1238 = metadata !{i64 1238}
!1239 = metadata !{i64 1239}
!1240 = metadata !{i64 1240}
!1241 = metadata !{i64 1241}
!1242 = metadata !{i64 1242}
!1243 = metadata !{i64 1243}
!1244 = metadata !{i64 1244}
!1245 = metadata !{i64 1245}
!1246 = metadata !{i64 1246}
!1247 = metadata !{i64 1247}
!1248 = metadata !{i64 1248}
!1249 = metadata !{i64 1249}
!1250 = metadata !{i64 1250}
!1251 = metadata !{i64 1251}
!1252 = metadata !{i64 1252}
!1253 = metadata !{i64 1253}
!1254 = metadata !{i64 1254}
!1255 = metadata !{i64 1255}
!1256 = metadata !{i64 1256}
!1257 = metadata !{i64 1257}
!1258 = metadata !{i64 1258}
!1259 = metadata !{i64 1259}
!1260 = metadata !{i64 1260}
!1261 = metadata !{i64 1261}
!1262 = metadata !{i64 1262}
!1263 = metadata !{i64 1263}
!1264 = metadata !{i64 1264}
!1265 = metadata !{i64 1265}
!1266 = metadata !{i64 1266}
!1267 = metadata !{i64 1267}
!1268 = metadata !{i64 1268}
!1269 = metadata !{i64 1269}
!1270 = metadata !{i64 1270}
!1271 = metadata !{i64 1271}
!1272 = metadata !{i64 1272}
!1273 = metadata !{i64 1273}
!1274 = metadata !{i64 1274}
!1275 = metadata !{i64 1275}
!1276 = metadata !{i64 1276}
!1277 = metadata !{i64 1277}
!1278 = metadata !{i64 1278}
!1279 = metadata !{i64 1279}
!1280 = metadata !{i64 1280}
!1281 = metadata !{i64 1281}
!1282 = metadata !{i64 1282}
!1283 = metadata !{i64 1283}
!1284 = metadata !{i64 1284}
!1285 = metadata !{i64 1285}
!1286 = metadata !{i64 1286}
!1287 = metadata !{i64 1287}
!1288 = metadata !{i64 1288}
!1289 = metadata !{i64 1289}
!1290 = metadata !{i64 1290}
!1291 = metadata !{i64 1291}
!1292 = metadata !{i64 1292}
!1293 = metadata !{i64 1293}
!1294 = metadata !{i64 1294}
!1295 = metadata !{i64 1295}
!1296 = metadata !{i64 1296}
!1297 = metadata !{i64 1297}
!1298 = metadata !{i64 1298}
!1299 = metadata !{i64 1299}
!1300 = metadata !{i64 1300}
!1301 = metadata !{i64 1301}
!1302 = metadata !{i64 1302}
!1303 = metadata !{i64 1303}
!1304 = metadata !{i64 1304}
!1305 = metadata !{i64 1305}
!1306 = metadata !{i64 1306}
!1307 = metadata !{i64 1307}
!1308 = metadata !{i64 1308}
!1309 = metadata !{i64 1309}
!1310 = metadata !{i64 1310}
!1311 = metadata !{i64 1311}
!1312 = metadata !{i64 1312}
!1313 = metadata !{i64 1313}
!1314 = metadata !{i64 1314}
!1315 = metadata !{i64 1315}
!1316 = metadata !{i64 1316}
!1317 = metadata !{i64 1317}
!1318 = metadata !{i64 1318}
!1319 = metadata !{i64 1319}
!1320 = metadata !{i64 1320}
!1321 = metadata !{i64 1321}
!1322 = metadata !{i64 1322}
!1323 = metadata !{i64 1323}
!1324 = metadata !{i64 1324}
!1325 = metadata !{i64 1325}
!1326 = metadata !{i64 1326}
!1327 = metadata !{i64 1327}
!1328 = metadata !{i64 1328}
!1329 = metadata !{i64 1329}
!1330 = metadata !{i64 1330}
!1331 = metadata !{i64 1331}
!1332 = metadata !{i64 1332}
!1333 = metadata !{i64 1333}
!1334 = metadata !{i64 1334}
!1335 = metadata !{i64 1335}
!1336 = metadata !{i64 1336}
!1337 = metadata !{i64 1337}
!1338 = metadata !{i64 1338}
!1339 = metadata !{i64 1339}
!1340 = metadata !{i64 1340}
!1341 = metadata !{i64 1341}
!1342 = metadata !{i64 1342}
!1343 = metadata !{i64 1343}
!1344 = metadata !{i64 1344}
!1345 = metadata !{i64 1345}
!1346 = metadata !{i64 1346}
!1347 = metadata !{i64 1347}
!1348 = metadata !{i64 1348}
!1349 = metadata !{i64 1349}
!1350 = metadata !{i64 1350}
!1351 = metadata !{i64 1351}
!1352 = metadata !{i64 1352}
!1353 = metadata !{i64 1353}
!1354 = metadata !{i64 1354}
!1355 = metadata !{i64 1355}
!1356 = metadata !{i64 1356}
!1357 = metadata !{i64 1357}
!1358 = metadata !{i64 1358}
!1359 = metadata !{i64 1359}
!1360 = metadata !{i64 1360}
!1361 = metadata !{i64 1361}
!1362 = metadata !{i64 1362}
!1363 = metadata !{i64 1363}
!1364 = metadata !{i64 1364}
!1365 = metadata !{i64 1365}
!1366 = metadata !{i64 1366}
!1367 = metadata !{i64 1367}
!1368 = metadata !{i64 1368}
!1369 = metadata !{i64 1369}
!1370 = metadata !{i64 1370}
!1371 = metadata !{i64 1371}
!1372 = metadata !{i64 1372}
!1373 = metadata !{i64 1373}
!1374 = metadata !{i64 1374}
!1375 = metadata !{i64 1375}
!1376 = metadata !{i64 1376}
!1377 = metadata !{i64 1377}
!1378 = metadata !{i64 1378}
!1379 = metadata !{i64 1379}
!1380 = metadata !{i64 1380}
!1381 = metadata !{i64 1381}
!1382 = metadata !{i64 1382}
!1383 = metadata !{i64 1383}
!1384 = metadata !{i64 1384}
!1385 = metadata !{i64 1385}
!1386 = metadata !{i64 1386}
!1387 = metadata !{i64 1387}
!1388 = metadata !{i64 1388}
!1389 = metadata !{i64 1389}
!1390 = metadata !{i64 1390}
!1391 = metadata !{i64 1391}
!1392 = metadata !{i64 1392}
!1393 = metadata !{i64 1393}
!1394 = metadata !{i64 1394}
!1395 = metadata !{i64 1395}
!1396 = metadata !{i64 1396}
!1397 = metadata !{i64 1397}
!1398 = metadata !{i64 1398}
!1399 = metadata !{i64 1399}
!1400 = metadata !{i64 1400}
!1401 = metadata !{i64 1401}
!1402 = metadata !{i64 1402}
!1403 = metadata !{i64 1403}
!1404 = metadata !{i64 1404}
!1405 = metadata !{i64 1405}
!1406 = metadata !{i64 1406}
!1407 = metadata !{i64 1407}
!1408 = metadata !{i64 1408}
!1409 = metadata !{i64 1409}
!1410 = metadata !{i64 1410}
!1411 = metadata !{i64 1411}
!1412 = metadata !{i64 1412}
!1413 = metadata !{i64 1413}
!1414 = metadata !{i64 1414}
!1415 = metadata !{i64 1415}
!1416 = metadata !{i64 1416}
!1417 = metadata !{i64 1417}
!1418 = metadata !{i64 1418}
!1419 = metadata !{i64 1419}
!1420 = metadata !{i64 1420}
!1421 = metadata !{i64 1421}
!1422 = metadata !{i64 1422}
!1423 = metadata !{i64 1423}
!1424 = metadata !{i64 1424}
!1425 = metadata !{i64 1425}
!1426 = metadata !{i64 1426}
!1427 = metadata !{i64 1427}
!1428 = metadata !{i64 1428}
!1429 = metadata !{i64 1429}
!1430 = metadata !{i64 1430}
!1431 = metadata !{i64 1431}
!1432 = metadata !{i64 1432}
!1433 = metadata !{i64 1433}
!1434 = metadata !{i64 1434}
!1435 = metadata !{i64 1435}
!1436 = metadata !{i64 1436}
!1437 = metadata !{i64 1437}
!1438 = metadata !{i64 1438}
!1439 = metadata !{i64 1439}
!1440 = metadata !{i64 1440}
!1441 = metadata !{i64 1441}
!1442 = metadata !{i64 1442}
!1443 = metadata !{i64 1443}
!1444 = metadata !{i64 1444}
!1445 = metadata !{i64 1445}
!1446 = metadata !{i64 1446}
!1447 = metadata !{i64 1447}
!1448 = metadata !{i64 1448}
!1449 = metadata !{i64 1449}
!1450 = metadata !{i64 1450}
!1451 = metadata !{i64 1451}
!1452 = metadata !{i64 1452}
!1453 = metadata !{i64 1453}
!1454 = metadata !{i64 1454}
!1455 = metadata !{i64 1455}
!1456 = metadata !{i64 1456}
!1457 = metadata !{i64 1457}
!1458 = metadata !{i64 1458}
!1459 = metadata !{i64 1459}
!1460 = metadata !{i64 1460}
!1461 = metadata !{i64 1461}
!1462 = metadata !{i64 1462}
!1463 = metadata !{i64 1463}
!1464 = metadata !{i64 1464}
!1465 = metadata !{i64 1465}
!1466 = metadata !{i64 1466}
!1467 = metadata !{i64 1467}
!1468 = metadata !{i64 1468}
!1469 = metadata !{i64 1469}
!1470 = metadata !{i64 1470}
!1471 = metadata !{i64 1471}
!1472 = metadata !{i64 1472}
!1473 = metadata !{i64 1473}
!1474 = metadata !{i64 1474}
!1475 = metadata !{i64 1475}
!1476 = metadata !{i64 1476}
!1477 = metadata !{i64 1477}
!1478 = metadata !{i64 1478}
!1479 = metadata !{i64 1479}
!1480 = metadata !{i64 1480}
!1481 = metadata !{i64 1481}
!1482 = metadata !{i64 1482}
!1483 = metadata !{i64 1483}
!1484 = metadata !{i64 1484}
!1485 = metadata !{i64 1485}
!1486 = metadata !{i64 1486}
!1487 = metadata !{i64 1487}
!1488 = metadata !{i64 1488}
!1489 = metadata !{i64 1489}
!1490 = metadata !{i64 1490}
!1491 = metadata !{i64 1491}
!1492 = metadata !{i64 1492}
!1493 = metadata !{i64 1493}
!1494 = metadata !{i64 1494}
!1495 = metadata !{i64 1495}
!1496 = metadata !{i64 1496}
!1497 = metadata !{i64 1497}
!1498 = metadata !{i64 1498}
!1499 = metadata !{i64 1499}
!1500 = metadata !{i64 1500}
!1501 = metadata !{i64 1501}
!1502 = metadata !{i64 1502}
!1503 = metadata !{i64 1503}
!1504 = metadata !{i64 1504}
!1505 = metadata !{i64 1505}
!1506 = metadata !{i64 1506}
!1507 = metadata !{i64 1507}
!1508 = metadata !{i64 1508}
!1509 = metadata !{i64 1509}
!1510 = metadata !{i64 1510}
!1511 = metadata !{i64 1511}
!1512 = metadata !{i64 1512}
!1513 = metadata !{i64 1513}
!1514 = metadata !{i64 1514}
!1515 = metadata !{i64 1515}
!1516 = metadata !{i64 1516}
!1517 = metadata !{i64 1517}
!1518 = metadata !{i64 1518}
!1519 = metadata !{i64 1519}
!1520 = metadata !{i64 1520}
!1521 = metadata !{i64 1521}
!1522 = metadata !{i64 1522}
!1523 = metadata !{i64 1523}
!1524 = metadata !{i64 1524}
!1525 = metadata !{i64 1525}
!1526 = metadata !{i64 1526}
!1527 = metadata !{i64 1527}
!1528 = metadata !{i64 1528}
!1529 = metadata !{i64 1529}
!1530 = metadata !{i64 1530}
!1531 = metadata !{i64 1531}
!1532 = metadata !{i64 1532}
!1533 = metadata !{i64 1533}
!1534 = metadata !{i64 1534}
!1535 = metadata !{i64 1535}
!1536 = metadata !{i64 1536}
!1537 = metadata !{i64 1537}
!1538 = metadata !{i64 1538}
!1539 = metadata !{i64 1539}
!1540 = metadata !{i64 1540}
!1541 = metadata !{i64 1541}
!1542 = metadata !{i64 1542}
!1543 = metadata !{i64 1543}
!1544 = metadata !{i64 1544}
!1545 = metadata !{i64 1545}
!1546 = metadata !{i64 1546}
!1547 = metadata !{i64 1547}
!1548 = metadata !{i64 1548}
!1549 = metadata !{i64 1549}
!1550 = metadata !{i64 1550}
!1551 = metadata !{i64 1551}
!1552 = metadata !{i64 1552}
!1553 = metadata !{i64 1553}
!1554 = metadata !{i64 1554}
!1555 = metadata !{i64 1555}
!1556 = metadata !{i64 1556}
!1557 = metadata !{i64 1557}
!1558 = metadata !{i64 1558}
!1559 = metadata !{i64 1559}
!1560 = metadata !{i64 1560}
!1561 = metadata !{i64 1561}
!1562 = metadata !{i64 1562}
!1563 = metadata !{i64 1563}
!1564 = metadata !{i64 1564}
!1565 = metadata !{i64 1565}
!1566 = metadata !{i64 1566}
!1567 = metadata !{i64 1567}
!1568 = metadata !{i64 1568}
!1569 = metadata !{i64 1569}
!1570 = metadata !{i64 1570}
!1571 = metadata !{i64 1571}
!1572 = metadata !{i64 1572}
!1573 = metadata !{i64 1573}
!1574 = metadata !{i64 1574}
!1575 = metadata !{i64 1575}
!1576 = metadata !{i64 1576}
!1577 = metadata !{i64 1577}
!1578 = metadata !{i64 1578}
!1579 = metadata !{i64 1579}
!1580 = metadata !{i64 1580}
!1581 = metadata !{i64 1581}
!1582 = metadata !{i64 1582}
!1583 = metadata !{i64 1583}
!1584 = metadata !{i64 1584}
!1585 = metadata !{i64 1585}
!1586 = metadata !{i64 1586}
!1587 = metadata !{i64 1587}
!1588 = metadata !{i64 1588}
!1589 = metadata !{i64 1589}
!1590 = metadata !{i64 1590}
!1591 = metadata !{i64 1591}
!1592 = metadata !{i64 1592}
!1593 = metadata !{i64 1593}
!1594 = metadata !{i64 1594}
!1595 = metadata !{i64 1595}
!1596 = metadata !{i64 1596}
!1597 = metadata !{i64 1597}
!1598 = metadata !{i64 1598}
!1599 = metadata !{i64 1599}
!1600 = metadata !{i64 1600}
!1601 = metadata !{i64 1601}
!1602 = metadata !{i64 1602}
!1603 = metadata !{i64 1603}
!1604 = metadata !{i64 1604}
!1605 = metadata !{i64 1605}
!1606 = metadata !{i64 1606}
!1607 = metadata !{i64 1607}
!1608 = metadata !{i64 1608}
!1609 = metadata !{i64 1609}
!1610 = metadata !{i64 1610}
!1611 = metadata !{i64 1611}
!1612 = metadata !{i64 1612}
!1613 = metadata !{i64 1613}
!1614 = metadata !{i64 1614}
!1615 = metadata !{i64 1615}
!1616 = metadata !{i64 1616}
!1617 = metadata !{i64 1617}
!1618 = metadata !{i64 1618}
!1619 = metadata !{i64 1619}
!1620 = metadata !{i64 1620}
!1621 = metadata !{i64 1621}
!1622 = metadata !{i64 1622}
!1623 = metadata !{i64 1623}
!1624 = metadata !{i64 1624}
!1625 = metadata !{i64 1625}
!1626 = metadata !{i64 1626}
!1627 = metadata !{i64 1627}
!1628 = metadata !{i64 1628}
!1629 = metadata !{i64 1629}
!1630 = metadata !{i64 1630}
!1631 = metadata !{i64 1631}
!1632 = metadata !{i64 1632}
!1633 = metadata !{i64 1633}
!1634 = metadata !{i64 1634}
!1635 = metadata !{i64 1635}
!1636 = metadata !{i64 1636}
!1637 = metadata !{i64 1637}
!1638 = metadata !{i64 1638}
!1639 = metadata !{i64 1639}
!1640 = metadata !{i64 1640}
!1641 = metadata !{i64 1641}
!1642 = metadata !{i64 1642}
!1643 = metadata !{i64 1643}
!1644 = metadata !{i64 1644}
!1645 = metadata !{i64 1645}
!1646 = metadata !{i64 1646}
!1647 = metadata !{i64 1647}
!1648 = metadata !{i64 1648}
!1649 = metadata !{i64 1649}
!1650 = metadata !{i64 1650}
!1651 = metadata !{i64 1651}
!1652 = metadata !{i64 1652}
!1653 = metadata !{i64 1653}
!1654 = metadata !{i64 1654}
!1655 = metadata !{i64 1655}
!1656 = metadata !{i64 1656}
!1657 = metadata !{i64 1657}
!1658 = metadata !{i64 1658}
!1659 = metadata !{i64 1659}
!1660 = metadata !{i64 1660}
!1661 = metadata !{i64 1661}
!1662 = metadata !{i64 1662}
!1663 = metadata !{i64 1663}
!1664 = metadata !{i64 1664}
!1665 = metadata !{i64 1665}
!1666 = metadata !{i64 1666}
!1667 = metadata !{i64 1667}
!1668 = metadata !{i64 1668}
!1669 = metadata !{i64 1669}
!1670 = metadata !{i64 1670}
!1671 = metadata !{i64 1671}
!1672 = metadata !{i64 1672}
!1673 = metadata !{i64 1673}
!1674 = metadata !{i64 1674}
!1675 = metadata !{i64 1675}
!1676 = metadata !{i64 1676}
!1677 = metadata !{i64 1677}
!1678 = metadata !{i64 1678}
!1679 = metadata !{i64 1679}
!1680 = metadata !{i64 1680}
!1681 = metadata !{i64 1681}
!1682 = metadata !{i64 1682}
!1683 = metadata !{i64 1683}
!1684 = metadata !{i64 1684}
!1685 = metadata !{i64 1685}
!1686 = metadata !{i64 1686}
!1687 = metadata !{i64 1687}
!1688 = metadata !{i64 1688}
!1689 = metadata !{i64 1689}
!1690 = metadata !{i64 1690}
!1691 = metadata !{i64 1691}
!1692 = metadata !{i64 1692}
!1693 = metadata !{i64 1693}
!1694 = metadata !{i64 1694}
!1695 = metadata !{i64 1695}
!1696 = metadata !{i64 1696}
!1697 = metadata !{i64 1697}
!1698 = metadata !{i64 1698}
!1699 = metadata !{i64 1699}
!1700 = metadata !{i64 1700}
!1701 = metadata !{i64 1701}
!1702 = metadata !{i64 1702}
!1703 = metadata !{i64 1703}
!1704 = metadata !{i64 1704}
!1705 = metadata !{i64 1705}
!1706 = metadata !{i64 1706}
!1707 = metadata !{i64 1707}
!1708 = metadata !{i64 1708}
!1709 = metadata !{i64 1709}
!1710 = metadata !{i64 1710}
!1711 = metadata !{i64 1711}
!1712 = metadata !{i64 1712}
!1713 = metadata !{i64 1713}
!1714 = metadata !{i64 1714}
!1715 = metadata !{i64 1715}
!1716 = metadata !{i64 1716}
!1717 = metadata !{i64 1717}
!1718 = metadata !{i64 1718}
!1719 = metadata !{i64 1719}
!1720 = metadata !{i64 1720}
!1721 = metadata !{i64 1721}
!1722 = metadata !{i64 1722}
!1723 = metadata !{i64 1723}
!1724 = metadata !{i64 1724}
!1725 = metadata !{i64 1725}
!1726 = metadata !{i64 1726}
!1727 = metadata !{i64 1727}
!1728 = metadata !{i64 1728}
!1729 = metadata !{i64 1729}
!1730 = metadata !{i64 1730}
!1731 = metadata !{i64 1731}
!1732 = metadata !{i64 1732}
!1733 = metadata !{i64 1733}
!1734 = metadata !{i64 1734}
!1735 = metadata !{i64 1735}
!1736 = metadata !{i64 1736}
!1737 = metadata !{i64 1737}
!1738 = metadata !{i64 1738}
!1739 = metadata !{i64 1739}
!1740 = metadata !{i64 1740}
!1741 = metadata !{i64 1741}
!1742 = metadata !{i64 1742}
!1743 = metadata !{i64 1743}
!1744 = metadata !{i64 1744}
!1745 = metadata !{i64 1745}
!1746 = metadata !{i64 1746}
!1747 = metadata !{i64 1747}
!1748 = metadata !{i64 1748}
!1749 = metadata !{i64 1749}
!1750 = metadata !{i64 1750}
!1751 = metadata !{i64 1751}
!1752 = metadata !{i64 1752}
!1753 = metadata !{i64 1753}
!1754 = metadata !{i64 1754}
!1755 = metadata !{i64 1755}
!1756 = metadata !{i64 1756}
!1757 = metadata !{i64 1757}
!1758 = metadata !{i64 1758}
!1759 = metadata !{i64 1759}
!1760 = metadata !{i64 1760}
!1761 = metadata !{i64 1761}
!1762 = metadata !{i64 1762}
!1763 = metadata !{i64 1763}
!1764 = metadata !{i64 1764}
!1765 = metadata !{i64 1765}
!1766 = metadata !{i64 1766}
!1767 = metadata !{i64 1767}
!1768 = metadata !{i64 1768}
!1769 = metadata !{i64 1769}
!1770 = metadata !{i64 1770}
!1771 = metadata !{i64 1771}
!1772 = metadata !{i64 1772}
!1773 = metadata !{i64 1773}
!1774 = metadata !{i64 1774}
!1775 = metadata !{i64 1775}
!1776 = metadata !{i64 1776}
!1777 = metadata !{i64 1777}
!1778 = metadata !{i64 1778}
!1779 = metadata !{i64 1779}
!1780 = metadata !{i64 1780}
!1781 = metadata !{i64 1781}
!1782 = metadata !{i64 1782}
!1783 = metadata !{i64 1783}
!1784 = metadata !{i64 1784}
!1785 = metadata !{i64 1785}
!1786 = metadata !{i64 1786}
!1787 = metadata !{i64 1787}
!1788 = metadata !{i64 1788}
!1789 = metadata !{i64 1789}
!1790 = metadata !{i64 1790}
!1791 = metadata !{i64 1791}
!1792 = metadata !{i64 1792}
!1793 = metadata !{i64 1793}
!1794 = metadata !{i64 1794}
!1795 = metadata !{i64 1795}
!1796 = metadata !{i64 1796}
!1797 = metadata !{i64 1797}
!1798 = metadata !{i64 1798}
!1799 = metadata !{i64 1799}
!1800 = metadata !{i64 1800}
!1801 = metadata !{i64 1801}
!1802 = metadata !{i64 1802}
!1803 = metadata !{i64 1803}
!1804 = metadata !{i64 1804}
!1805 = metadata !{i64 1805}
!1806 = metadata !{i64 1806}
!1807 = metadata !{i64 1807}
!1808 = metadata !{i64 1808}
!1809 = metadata !{i64 1809}
!1810 = metadata !{i64 1810}
!1811 = metadata !{i64 1811}
!1812 = metadata !{i64 1812}
!1813 = metadata !{i64 1813}
!1814 = metadata !{i64 1814}
!1815 = metadata !{i64 1815}
!1816 = metadata !{i64 1816}
!1817 = metadata !{i64 1817}
!1818 = metadata !{i64 1818}
!1819 = metadata !{i64 1819}
!1820 = metadata !{i64 1820}
!1821 = metadata !{i64 1821}
!1822 = metadata !{i64 1822}
!1823 = metadata !{i64 1823}
!1824 = metadata !{i64 1824}
!1825 = metadata !{i64 1825}
!1826 = metadata !{i64 1826}
!1827 = metadata !{i64 1827}
!1828 = metadata !{i64 1828}
!1829 = metadata !{i64 1829}
!1830 = metadata !{i64 1830}
!1831 = metadata !{i64 1831}
!1832 = metadata !{i64 1832}
!1833 = metadata !{i64 1833}
!1834 = metadata !{i64 1834}
!1835 = metadata !{i64 1835}
!1836 = metadata !{i64 1836}
!1837 = metadata !{i64 1837}
!1838 = metadata !{i64 1838}
!1839 = metadata !{i64 1839}
